
bomb:     file format elf64-x86-64

Contents of section .interp:
 400200 2f6c6962 36342f6c 642d6c69 6e75782d  /lib64/ld-linux-
 400210 7838362d 36342e73 6f2e3200           x86-64.so.2.    
Contents of section .note.ABI-tag:
 40021c 04000000 10000000 01000000 474e5500  ............GNU.
 40022c 00000000 02000000 06000000 12000000  ................
Contents of section .note.gnu.build-id:
 40023c 04000000 14000000 03000000 474e5500  ............GNU.
 40024c f1af000b 24049cac 22066b10 2b42abeb  ....$...".k.+B..
 40025c 3adbc970                             :..p            
Contents of section .gnu.hash:
 400260 03000000 1e000000 01000000 06000000  ................
 400270 00012000 80011002 1e000000 1f000000  .. .............
 400280 00000000 291d8c1c 66556110 39f28b1c  ....)...fUa.9...
Contents of section .dynsym:
 400290 00000000 00000000 00000000 00000000  ................
 4002a0 00000000 00000000 f1000000 12000000  ................
 4002b0 00000000 00000000 00000000 00000000  ................
 4002c0 ea000000 12000000 00000000 00000000  ................
 4002d0 00000000 00000000 ca000000 12000000  ................
 4002e0 00000000 00000000 00000000 00000000  ................
 4002f0 01000000 20000000 00000000 00000000  .... ...........
 400300 00000000 00000000 61000000 12000000  ........a.......
 400310 00000000 00000000 00000000 00000000  ................
 400320 42000000 12000000 00000000 00000000  B...............
 400330 00000000 00000000 2f000000 12000000  ......../.......
 400340 00000000 00000000 00000000 00000000  ................
 400350 9d000000 12000000 00000000 00000000  ................
 400360 00000000 00000000 8a000000 12000000  ................
 400370 00000000 00000000 00000000 00000000  ................
 400380 3c000000 12000000 00000000 00000000  <...............
 400390 00000000 00000000 fe000000 12000000  ................
 4003a0 00000000 00000000 00000000 00000000  ................
 4003b0 73000000 12000000 00000000 00000000  s...............
 4003c0 00000000 00000000 e4000000 12000000  ................
 4003d0 00000000 00000000 00000000 00000000  ................
 4003e0 af000000 12000000 00000000 00000000  ................
 4003f0 00000000 00000000 34000000 12000000  ........4.......
 400400 00000000 00000000 00000000 00000000  ................
 400410 f8000000 12000000 00000000 00000000  ................
 400420 00000000 00000000 6c000000 12000000  ........l.......
 400430 00000000 00000000 00000000 00000000  ................
 400440 52000000 12000000 00000000 00000000  R...............
 400450 00000000 00000000 d8000000 12000000  ................
 400460 00000000 00000000 00000000 00000000  ................
 400470 96000000 12000000 00000000 00000000  ................
 400480 00000000 00000000 5a000000 12000000  ........Z.......
 400490 00000000 00000000 00000000 00000000  ................
 4004a0 1a000000 12000000 00000000 00000000  ................
 4004b0 00000000 00000000 a8000000 12000000  ................
 4004c0 00000000 00000000 00000000 00000000  ................
 4004d0 c4000000 12000000 00000000 00000000  ................
 4004e0 00000000 00000000 79000000 12000000  ........y.......
 4004f0 00000000 00000000 00000000 00000000  ................
 400500 28000000 12000000 00000000 00000000  (...............
 400510 00000000 00000000 f0000000 12000000  ................
 400520 00000000 00000000 00000000 00000000  ................
 400530 10010000 12000000 00000000 00000000  ................
 400540 00000000 00000000 21000000 12000000  ........!.......
 400550 00000000 00000000 00000000 00000000  ................
 400560 8f000000 11001900 90386000 00000000  .........8`.....
 400570 08000000 00000000 66000000 11001900  ........f.......
 400580 80386000 00000000 08000000 00000000  .8`.............
 400590 bd000000 11001900 88386000 00000000  .........8`.....
 4005a0 08000000 00000000                    ........        
Contents of section .dynstr:
 4005a8 005f5f67 6d6f6e5f 73746172 745f5f00  .__gmon_start__.
 4005b8 6c696263 2e736f2e 3600736f 636b6574  libc.so.6.socket
 4005c8 0066666c 75736800 73747263 70790065  .fflush.strcpy.e
 4005d8 78697400 73707269 6e746600 666f7065  xit.sprintf.fope
 4005e8 6e005f5f 69736f63 39395f73 7363616e  n.__isoc99_sscan
 4005f8 6600636f 6e6e6563 74007369 676e616c  f.connect.signal
 400608 00707574 73007374 64696e00 73747274  .puts.stdin.strt
 400618 6f6c0066 67657473 005f5f65 72726e6f  ol.fgets.__errno
 400628 5f6c6f63 6174696f 6e007265 61640073  _location.read.s
 400638 74646f75 74006d65 6d637079 00737472  tdout.memcpy.str
 400648 63617365 636d7000 67657465 6e76005f  casecmp.getenv._
 400658 5f637479 70655f62 5f6c6f63 00737464  _ctype_b_loc.std
 400668 65727200 616c6172 6d006765 74686f73  err.alarm.gethos
 400678 7462796e 616d6500 67657468 6f73746e  tbyname.gethostn
 400688 616d6500 62636f70 7900636c 6f736500  ame.bcopy.close.
 400698 66707269 6e746600 736c6565 70005f5f  fprintf.sleep.__
 4006a8 6c696263 5f737461 72745f6d 61696e00  libc_start_main.
 4006b8 77726974 6500474c 4942435f 322e3300  write.GLIBC_2.3.
 4006c8 474c4942 435f322e 3700474c 4942435f  GLIBC_2.7.GLIBC_
 4006d8 322e322e 3500                        2.2.5.          
Contents of section .gnu.version:
 4006de 00000200 02000200 00000200 03000200  ................
 4006ee 02000200 02000200 02000200 04000200  ................
 4006fe 02000200 02000200 02000200 02000200  ................
 40070e 02000200 02000200 02000200 02000200  ................
 40071e 0200                                 ..              
Contents of section .gnu.version_r:
 400720 01000300 10000000 10000000 00000000  ................
 400730 1369690d 00000400 16010000 10000000  .ii.............
 400740 1769690d 00000300 20010000 10000000  .ii..... .......
 400750 751a6909 00000200 2a010000 00000000  u.i.....*.......
Contents of section .rela.dyn:
 400760 c8306000 00000000 06000000 04000000  .0`.............
 400770 00000000 00000000 80386000 00000000  .........8`.....
 400780 05000000 1f000000 00000000 00000000  ................
 400790 88386000 00000000 05000000 20000000  .8`......... ...
 4007a0 00000000 00000000 90386000 00000000  .........8`.....
 4007b0 05000000 1e000000 00000000 00000000  ................
Contents of section .rela.plt:
 4007c0 e8306000 00000000 07000000 01000000  .0`.............
 4007d0 00000000 00000000 f0306000 00000000  .........0`.....
 4007e0 07000000 02000000 00000000 00000000  ................
 4007f0 f8306000 00000000 07000000 03000000  .0`.............
 400800 00000000 00000000 00316000 00000000  .........1`.....
 400810 07000000 05000000 00000000 00000000  ................
 400820 08316000 00000000 07000000 06000000  .1`.............
 400830 00000000 00000000 10316000 00000000  .........1`.....
 400840 07000000 07000000 00000000 00000000  ................
 400850 18316000 00000000 07000000 08000000  .1`.............
 400860 00000000 00000000 20316000 00000000  ........ 1`.....
 400870 07000000 09000000 00000000 00000000  ................
 400880 28316000 00000000 07000000 0a000000  (1`.............
 400890 00000000 00000000 30316000 00000000  ........01`.....
 4008a0 07000000 0b000000 00000000 00000000  ................
 4008b0 38316000 00000000 07000000 0c000000  81`.............
 4008c0 00000000 00000000 40316000 00000000  ........@1`.....
 4008d0 07000000 0d000000 00000000 00000000  ................
 4008e0 48316000 00000000 07000000 0e000000  H1`.............
 4008f0 00000000 00000000 50316000 00000000  ........P1`.....
 400900 07000000 0f000000 00000000 00000000  ................
 400910 58316000 00000000 07000000 10000000  X1`.............
 400920 00000000 00000000 60316000 00000000  ........`1`.....
 400930 07000000 11000000 00000000 00000000  ................
 400940 68316000 00000000 07000000 12000000  h1`.............
 400950 00000000 00000000 70316000 00000000  ........p1`.....
 400960 07000000 13000000 00000000 00000000  ................
 400970 78316000 00000000 07000000 14000000  x1`.............
 400980 00000000 00000000 80316000 00000000  .........1`.....
 400990 07000000 15000000 00000000 00000000  ................
 4009a0 88316000 00000000 07000000 16000000  .1`.............
 4009b0 00000000 00000000 90316000 00000000  .........1`.....
 4009c0 07000000 17000000 00000000 00000000  ................
 4009d0 98316000 00000000 07000000 18000000  .1`.............
 4009e0 00000000 00000000 a0316000 00000000  .........1`.....
 4009f0 07000000 19000000 00000000 00000000  ................
 400a00 a8316000 00000000 07000000 1a000000  .1`.............
 400a10 00000000 00000000 b0316000 00000000  .........1`.....
 400a20 07000000 1b000000 00000000 00000000  ................
 400a30 b8316000 00000000 07000000 1c000000  .1`.............
 400a40 00000000 00000000 c0316000 00000000  .........1`.....
 400a50 07000000 1d000000 00000000 00000000  ................
Contents of section .init:
 400a60 4883ec08 e8130200 00e8a202 0000e85d  H..............]
 400a70 17000048 83c408c3                    ...H....        
Contents of section .plt:
 400a78 ff355a26 2000ff25 5c262000 0f1f4000  .5Z& ..%\& ...@.
 400a88 ff255a26 20006800 000000e9 e0ffffff  .%Z& .h.........
 400a98 ff255226 20006801 000000e9 d0ffffff  .%R& .h.........
 400aa8 ff254a26 20006802 000000e9 c0ffffff  .%J& .h.........
 400ab8 ff254226 20006803 000000e9 b0ffffff  .%B& .h.........
 400ac8 ff253a26 20006804 000000e9 a0ffffff  .%:& .h.........
 400ad8 ff253226 20006805 000000e9 90ffffff  .%2& .h.........
 400ae8 ff252a26 20006806 000000e9 80ffffff  .%*& .h.........
 400af8 ff252226 20006807 000000e9 70ffffff  .%"& .h.....p...
 400b08 ff251a26 20006808 000000e9 60ffffff  .%.& .h.....`...
 400b18 ff251226 20006809 000000e9 50ffffff  .%.& .h.....P...
 400b28 ff250a26 2000680a 000000e9 40ffffff  .%.& .h.....@...
 400b38 ff250226 2000680b 000000e9 30ffffff  .%.& .h.....0...
 400b48 ff25fa25 2000680c 000000e9 20ffffff  .%.% .h..... ...
 400b58 ff25f225 2000680d 000000e9 10ffffff  .%.% .h.........
 400b68 ff25ea25 2000680e 000000e9 00ffffff  .%.% .h.........
 400b78 ff25e225 2000680f 000000e9 f0feffff  .%.% .h.........
 400b88 ff25da25 20006810 000000e9 e0feffff  .%.% .h.........
 400b98 ff25d225 20006811 000000e9 d0feffff  .%.% .h.........
 400ba8 ff25ca25 20006812 000000e9 c0feffff  .%.% .h.........
 400bb8 ff25c225 20006813 000000e9 b0feffff  .%.% .h.........
 400bc8 ff25ba25 20006814 000000e9 a0feffff  .%.% .h.........
 400bd8 ff25b225 20006815 000000e9 90feffff  .%.% .h.........
 400be8 ff25aa25 20006816 000000e9 80feffff  .%.% .h.........
 400bf8 ff25a225 20006817 000000e9 70feffff  .%.% .h.....p...
 400c08 ff259a25 20006818 000000e9 60feffff  .%.% .h.....`...
 400c18 ff259225 20006819 000000e9 50feffff  .%.% .h.....P...
 400c28 ff258a25 2000681a 000000e9 40feffff  .%.% .h.....@...
 400c38 ff258225 2000681b 000000e9 30feffff  .%.% .h.....0...
Contents of section .text:
 400c50 31ed4989 d15e4889 e24883e4 f0505449  1.I..^H..H...PTI
 400c60 c7c03021 400048c7 c1402140 0048c7c7  ..0!@.H..@!@.H..
 400c70 340d4000 e89ffeff fff49090 4883ec08  4.@.........H...
 400c80 488b0541 24200048 85c07402 ffd04883  H..A$ .H..t...H.
 400c90 c408c390 90909090 90909090 90909090  ................
 400ca0 554889e5 534883ec 08803de8 2b200000  UH..SH....=.+ ..
 400cb0 754bbb28 2f600048 8b05e22b 20004881  uK.(/`.H...+ .H.
 400cc0 eb202f60 0048c1fb 034883eb 014839d8  . /`.H...H...H9.
 400cd0 7324660f 1f440000 4883c001 488905bd  s$f..D..H...H...
 400ce0 2b2000ff 14c5202f 6000488b 05af2b20  + .... /`.H...+ 
 400cf0 004839d8 72e2c605 9b2b2000 014883c4  .H9.r....+ ..H..
 400d00 085bc9c3 6666662e 0f1f8400 00000000  .[..fff.........
 400d10 48833d18 22200000 554889e5 7412b800  H.=." ..UH..t...
 400d20 00000048 85c07408 bf302f60 00c9ffe0  ...H..t..0/`....
 400d30 c9c39090 55534883 ec084889 f383ff01  ....USH...H.....
 400d40 7510488b 05372b20 00488905 602b2000  u.H..7+ .H..`+ .
 400d50 eb5a83ff 02753948 8d6e08be 30224000  .Z...u9H.n..0"@.
 400d60 488b7d00 e89ffdff ff488905 402b2000  H.}......H..@+ .
 400d70 4885c075 37488b55 00488b33 bf322240  H..u7H.U.H.3.2"@
 400d80 00e802fd ffffbf08 000000e8 48fdffff  ............H...
 400d90 488b36bf 4f224000 b8000000 00e8e6fc  H.6.O"@.........
 400da0 ffffbf08 000000e8 2cfdffff e86f0800  ........,....o..
 400db0 00bfb822 4000e8fd fcffffbf f8224000  ..."@........"@.
 400dc0 e8f3fcff ffe81b07 00004889 c7e84203  ..........H...B.
 400dd0 0000e88f 050000bf 28234000 e8d7fcff  ........(#@.....
 400de0 ffe8ff06 00004889 c7e88402 0000e873  ......H........s
 400df0 050000bf 69224000 e8bbfcff ffe8e306  ....i"@.........
 400e00 00004889 c7e87a03 0000e857 050000bf  ..H...z....W....
 400e10 87224000 e89ffcff ffe8c706 00004889  ."@...........H.
 400e20 c7e80b03 0000e83b 050000bf 58234000  .......;....X#@.
 400e30 e883fcff ffe8ab06 00004889 c7e87402  ..........H...t.
 400e40 0000e81f 050000bf 96224000 e867fcff  ........."@..g..
 400e50 ffe88f06 00004889 c7e8f500 0000e803  ......H.........
 400e60 050000b8 00000000 4883c408 5b5dc390  ........H...[]..
 400e70 48895c24 e848896c 24f04c89 6424f848  H.\$.H.l$.L.d$.H
 400e80 83ec1889 fb89f585 ff7f07bd 00000000  ................
 400e90 eb2083ff 01741b8d 7bffe8d1 ffffff41  . ...t..{......A
 400ea0 89c48d7b fe89eee8 c4ffffff 4101c444  ...{........A..D
 400eb0 01e589e8 488b1c24 488b6c24 084c8b64  ....H..$H.l$.L.d
 400ec0 24104883 c418c348 83ec08b8 ffffffff  $.H....H........
 400ed0 4885ff74 298b1739 f27e0d48 8b7f08e8  H..t)..9.~.H....
 400ee0 e3ffffff 01c0eb16 b8000000 0039f274  .............9.t
 400ef0 0d488b7f 10e8cdff ffff8d44 00014883  .H.........D..H.
 400f00 c408c353 e8dc0500 00ba0a00 0000be00  ...S............
 400f10 00000048 89c7e85d fcffff89 c38d43ff  ...H...]......C.
 400f20 3de80300 007605e8 c3040000 89debf50  =....v.........P
 400f30 346000e8 8fffffff 83f80274 05e8ad04  4`.........t....
 400f40 0000bf80 234000e8 6cfbffff e8150400  ....#@..l.......
 400f50 005bc341 55415455 534883ec 584c8d64  .[.AUATUSH..XL.d
 400f60 24304c89 e6e8bb04 00004c89 e541bd00  $0L.......L..A..
 400f70 0000008b 450083e8 0183f805 7605e86c  ....E.......v..l
 400f80 04000041 83c50141 83fd0674 224489eb  ...A...A...t"D..
 400f90 4863c38b 55003b54 84307505 e84e0400  Hc..U.;T.0u..N..
 400fa0 0083c301 83fb057e e74883c5 04ebc448  .......~.H.....H
 400fb0 8d4c2448 ba070000 0089d041 2b042441  .L$H.......A+.$A
 400fc0 89042449 83c40449 39cc75ed bb000000  ..$I...I9.u.....
 400fd0 004c8d44 2430bd01 000000be 80326000  .L.D$0.......2`.
 400fe0 4889e7eb 19488b52 0883c001 39c875f5  H....H.R....9.u.
 400ff0 4889145f 4883c304 4883fb18 7410418b  H.._H...H...t.A.
 401000 0c1889e8 4889f283 f9017fd9 ebe2488b  ....H.........H.
 401010 1c24488b 44240848 89430848 8b542410  .$H.D$.H.C.H.T$.
 401020 48895008 488b4424 18488942 08488b54  H.P.H.D$.H.B.H.T
 401030 24204889 5008488b 44242848 89420848  $ H.P.H.D$(H.B.H
 401040 c7400800 000000bd 00000000 488b4308  .@..........H.C.
 401050 8b133b10 7d05e894 03000048 8b5b0883  ..;.}......H.[..
 401060 c50183fd 0575e548 83c4585b 5d415c41  .....u.H..X[]A\A
 401070 5dc35553 4883ec28 4889e6e8 a5030000  ].USH..(H.......
 401080 833c2400 7905e864 03000048 8d5c2404  .<$.y..d...H.\$.
 401090 bd010000 0089e803 43fc3903 7405e84c  ........C.9.t..L
 4010a0 03000083 c5014883 c30483fd 0675e648  ......H......u.H
 4010b0 83c4285b 5dc35348 83ec1048 89fbe84d  ..([].SH...H...M
 4010c0 01000083 f8067405 e8220300 004889e0  ......t.."...H..
 4010d0 488d7306 ba202440 00480fbe 0b83e10f  H.s.. $@.H......
 4010e0 0fb60c0a 88084883 c3014883 c0014839  ......H...H...H9
 4010f0 f375e6c6 44240600 4889e7be d5234000  .u..D$..H....#@.
 401100 e8270100 0085c074 05e8e102 00004883  .'.....t......H.
 401110 c4105bc3 4883ec08 bea82340 00e80a01  ..[.H.....#@....
 401120 000085c0 7405e8c4 02000048 83c40890  ....t......H....
 401130 c34883ec 18488d4c 240c488d 542408be  .H...H.L$.H.T$..
 401140 9a244000 b8000000 00e87af9 ffff83f8  .$@.......z.....
 401150 02750e8b 44240c83 f8017e05 83f8047e  .u..D$....~....~
 401160 05e88902 00008b74 240cbf06 000000e8  .......t$.......
 401170 fcfcffff 3b442408 7405e870 02000048  ....;D$.t..p...H
 401180 83c418c3 4883ec18 488d4c24 08488d54  ....H...H.L$.H.T
 401190 240cbe9a 244000b8 00000000 e827f9ff  $...$@.......'..
 4011a0 ff83f801 7f05e844 02000083 7c240c07  .......D....|$..
 4011b0 77438b44 240cff24 c5e02340 00b87302  wC.D$..$..#@..s.
 4011c0 0000eb3b b8af0300 00eb34b8 2c020000  ...;......4.,...
 4011d0 eb2db8e6 030000eb 26b88302 0000eb1f  .-......&.......
 4011e0 b8e30300 00eb18b8 9d030000 eb11b832  ...............2
 4011f0 030000eb 0ae8f501 0000b800 0000003b  ...............;
 401200 44240874 05e8e501 00004883 c418c390  D$.t......H.....
 401210 4889fab8 00000000 803f0074 0d4883c2  H........?.t.H..
 401220 0189d029 f8803a00 75f3f3c3 41545553  ...)..:.u...ATUS
 401230 4889fb48 89f5e8d5 ffffff41 89c44889  H..H.......A..H.
 401240 efe8caff ffff4139 c475260f b61384d2  ......A9.u&.....
 401250 74264889 e83a5500 740aeb15 4883c001  t&H..:U.t...H...
 401260 3a10750d 4883c301 0fb61384 d275edeb  :.u.H........u..
 401270 07b80100 0000eb05 b8000000 005b5d41  .............[]A
 401280 5cc3f3c3 4883ec08 4889febf 30244000  \...H...H...0$@.
 401290 b8000000 00e8eef7 ffffbf08 000000e8  ................
 4012a0 34f8ffff 534881ec 00400000 89fa448b  4...SH...@....D.
 4012b0 05f32520 004963c0 4c8d4c80 fb49c1e1  ..% .Ic.L.L..I..
 4012c0 044981c1 c0386000 4c89cfb8 00000000  .I...8`.L.......
 4012d0 48c7c1ff fffffff2 ae48f7d1 4883c163  H........H..H..c
 4012e0 4881f900 20000076 14bf2825 4000e895  H... ..v..(%@...
 4012f0 f7ffffbf 08000000 e8dbf7ff ff85d2b8  ................
 401300 41244000 b94a2440 00480f44 c8488d9c  A$@..J$@.H.D.H..
 401310 24002000 008b15d5 1e2000be 52244000  $. ...... ..R$@.
 401320 4889dfb8 00000000 e82bf8ff ff4989e0  H........+...I..
 401330 b9000000 004889da be103260 00bf0032  .....H....2`...2
 401340 6000e845 0d000085 c0791248 89e7e865  `..E.....y.H...e
 401350 f7ffffbf 00000000 e87bf7ff ff4881c4  .........{...H..
 401360 00400000 5bc34883 ec68bf01 000000e8  .@..[.H..h......
 401370 30ffffff 833d2d25 20000675 6d488d4c  0....=-% ..umH.L
 401380 2408488d 54240c4c 8d442410 be5e2440  $.H.T$.L.D$..^$@
 401390 00bfb039 6000b800 000000e8 28f7ffff  ...9`.......(...
 4013a0 83f80375 31488d7c 2410be67 244000e8  ...u1H.|$..g$@..
 4013b0 78feffff 85c0751e bf502540 00e8f6f6  x.....u..P%@....
 4013c0 ffffbf78 254000e8 ecf6ffff b8000000  ...x%@..........
 4013d0 00e82dfb ffffbfb0 254000e8 d8f6ffff  ..-.....%@......
 4013e0 bfe02540 00e8cef6 ffff4883 c468c348  ..%@......H..h.H
 4013f0 83ec08bf 6e244000 e8bbf6ff ffbf7724  ....n$@.......w$
 401400 4000e8b1 f6ffffbf 00000000 e893feff  @...............
 401410 ffbf2826 4000e89d f6ffffbf 08000000  ..(&@...........
 401420 e8b3f6ff ff4883ec 184889f2 488d4e04  .....H...H..H.N.
 401430 488d4614 48894424 08488d46 10488904  H.F.H.D$.H.F.H..
 401440 244c8d4e 0c4c8d46 08be8e24 4000b800  $L.N.L.F...$@...
 401450 000000e8 70f6ffff 83f8057f 05e88dff  ....p...........
 401460 ffff4883 c418c355 534883ec 084889fd  ..H....USH...H..
 401470 eb1ee8d1 f6ffff48 0fbedb48 8b00f644  .......H...H...D
 401480 58012075 07b80000 0000eb11 4883c501  X. u........H...
 401490 0fb65d00 84db75da b8010000 004883c4  ..]...u......H..
 4014a0 085b5dc3 53486305 fc232000 488d3c80  .[].SHc..# .H.<.
 4014b0 48c1e704 4881c7c0 38600048 8b15ee23  H...H...8`.H...#
 4014c0 2000be50 000000e8 5cf6ffff 4889c348   ..P....\...H..H
 4014d0 85c0740c 4889c7e8 8bffffff 85c075c5  ..t.H.........u.
 4014e0 4889d85b c3555348 83ec08b8 00000000  H..[.USH........
 4014f0 e8afffff ff4885c0 756e488b 057f2320  .....H..unH...# 
 401500 00483905 a8232000 7514bfa0 244000e8  .H9..# .u...$@..
 401510 a4f5ffff bf080000 00e8baf5 ffffbfbe  ................
 401520 244000e8 b0f6ffff 4885c074 0abf0000  $@......H..t....
 401530 0000e8a1 f5ffff48 8b054223 20004889  .......H..B# .H.
 401540 056b2320 00b80000 0000e855 ffffff48  .k# .......U...H
 401550 85c07514 bfa02440 00e85af5 ffffbf00  ..u...$@..Z.....
 401560 000000e8 70f5ffff bdc03860 00486305  ....p.....8`.Hc.
 401570 34232000 488d0480 48c1e004 488db8c0  4# .H...H...H...
 401580 386000b8 00000000 48c7c1ff fffffff2  8`......H.......
 401590 ae48f7d1 8d59ff83 fb4e7e48 bfc92440  .H...Y...N~H..$@
 4015a0 00e812f5 ffff8b05 fc222000 8d500189  ........." ..P..
 4015b0 15f32220 00489848 8d048048 c1e00448  .." .H.H...H...H
 4015c0 8d440500 c7002a2a 2a74c740 0472756e  .D....***t.@.run
 4015d0 63c74008 61746564 c7400c2a 2a2a00e8  c.@.ated.@.***..
 4015e0 0bfeffff 8b0dbe22 200083eb 014863db  ......." ....Hc.
 4015f0 4863c148 8d148500 00000048 8d340248  Hc.H.......H.4.H
 401600 c1e604c6 8433c038 60000083 c101890d  .....3.8`.......
 401610 94222000 488d4435 004883c4 085b5dc3  ." .H.D5.H...[].
 401620 55534881 ec482000 00bedd16 4000bf02  USH..H .....@...
 401630 000000e8 80f5ffff 488dbc24 00200000  ........H..$. ..
 401640 be400000 00e84ef5 ffff85c0 751b488b  .@....N.....u.H.
 401650 3d2b1e20 00bb8834 6000488d ac240020  =+. ...4`.H..$. 
 401660 00004885 ff7516eb 56bf5026 4000e845  ..H..u..V.P&@..E
 401670 f4ffffbf 08000000 e85bf4ff ff4889ee  .........[...H..
 401680 e863f4ff ff85c074 0e488b3b 4883c308  .c.....t.H.;H...
 401690 4885ff75 e8eb2848 89e7e891 00000085  H..u..(H........
 4016a0 c0793048 89e6bfe4 244000b8 00000000  .y0H....$@......
 4016b0 e8d3f3ff ffbf0800 0000e819 f4ffffbf  ................
 4016c0 88264000 e8eff3ff ffbf0800 0000e805  .&@.............
 4016d0 f4ffff48 81c44820 00005b5d c34883ec  ...H..H ..[].H..
 4016e0 08bfc026 4000e8cd f3ffffbf 03000000  ...&@...........
 4016f0 e873f4ff ffbffe24 4000b800 000000e8  .s.....$@.......
 401700 84f3ffff 488b3d85 212000e8 28f5ffff  ....H.=.! ..(...
 401710 bf010000 00e84ef4 ffffbf06 254000e8  ......N.....%@..
 401720 94f3ffff bf100000 00e8aaf3 ffff9090  ................
 401730 41545553 4883ec10 4989fcbe 01000000  ATUSH...I.......
 401740 bf0d0000 00e86ef4 ffffbe01 000000bf  ......n.........
 401750 1d000000 e85ff4ff ffbe0100 0000bf1d  ....._..........
 401760 000000e8 50f4ffff ba000000 00be0100  ....P...........
 401770 0000bf02 000000e8 4cf4ffff 89c585c0  ........L.......
 401780 796241c7 04244572 726f41c7 44240472  ybA..$ErroA.D$.r
 401790 3a204341 c7442408 6c69656e 41c74424  : CA.D$.lienA.D$
 4017a0 0c742075 6e41c744 24106162 6c6541c7  .t unA.D$.ableA.
 4017b0 44241420 746f2041 c7442418 63726561  D$. to A.D$.crea
 4017c0 41c74424 1c746520 7341c744 24206f63  A.D$.te sA.D$ oc
 4017d0 6b656641 c7442424 7400b8ff ffffffe9  kefA.D$$t.......
 4017e0 18010000 bf0e2540 00e8baf2 ffff4885  ......%@......H.
 4017f0 c00f8581 00000041 c7042445 72726f41  .......A..$ErroA
 401800 c7442404 723a2044 41c74424 084e5320  .D$.r: DA.D$.NS 
 401810 6941c744 240c7320 756e41c7 44241061  iA.D$.s unA.D$.a
 401820 626c6541 c7442414 20746f20 41c74424  bleA.D$. to A.D$
 401830 18726573 6f41c744 241c6c76 652041c7  .resoA.D$.lve A.
 401840 44242073 65727641 c7442424 65722061  D$ servA.D$$er a
 401850 41c74424 28646472 656641c7 44242c73  A.D$(ddrefA.D$,s
 401860 7341c644 242e0089 efe82af2 ffffb8ff  sA.D$.....*.....
 401870 ffffffe9 84000000 48c70424 00000000  ........H..$....
 401880 48c74424 08000000 0066c704 24020048  H.D$.....f..$..H
 401890 63501448 8d742404 488b4018 488b38e8  cP.H.t$.H.@.H.8.
 4018a0 94f2ffff 66c74424 0236b3ba 10000000  ....f.D$.6......
 4018b0 4889e689 efe8cef2 ffff85c0 7925ba0e  H...........y%..
 4018c0 254000be 38274000 4c89e7b8 00000000  %@..8'@.L.......
 4018d0 e883f2ff ff89efe8 bcf1ffff b8ffffff  ................
 4018e0 ffeb1989 efe8aef1 ffff6641 c704244f  ..........fA..$O
 4018f0 4b41c644 240200b8 00000000 4883c410  KA.D$.......H...
 401900 5b5d415c c35389fb 85ff741e be032140  []A\.S....t...!@
 401910 00bf0e00 0000e89d f2ffff85 dbbf0000  ................
 401920 00000f49 fbe8bef2 ffff5bc3 41574156  ...I......[.AWAV
 401930 41554154 55534883 ec284889 fb488914  AUATUSH..(H..H..
 401940 244989f7 4883fa01 0f86c000 00004c8d  $I..H.........L.
 401950 6f104d89 ec41be01 000000eb 38ba0020  o.M..A......8.. 
 401960 00004c89 ee8b3be8 8cf1ffff 89430485  ..L...;......C..
 401970 c07916e8 80f2ffff 83380474 1848c7c2  .y.......8.t.H..
 401980 ffffffff e9a60000 0085c00f 84990000  ................
 401990 004c8963 088b6b04 85ed7ec1 85ed0f85  .L.c..k...~.....
 4019a0 90000000 4863c548 89442408 488b7308  ....Hc.H.D$.H.s.
 4019b0 4889c248 8d7c241f e8ebf1ff ff488b44  H..H.|$......H.D
 4019c0 24084801 4308296b 0489c283 f8017515  $.H.C.)k......u.
 4019d0 0fb64424 1f418807 4983c701 807c241f  ..D$.A..I....|$.
 4019e0 0a751ceb 2f4489f1 48c7c0ff ffffff85  .u../D..H.......
 4019f0 d27528b8 00000000 83f90175 17eb1c41  .u(........u...A
 401a00 83c60149 63c6483b 04247289 eb0641be  ...Ic.H;.$r...A.
 401a10 01000000 41c60700 4963c648 83c4285b  ....A...Ic.H..([
 401a20 5d415c41 5d415e41 5fc3ba00 00000044  ]A\A]A^A_......D
 401a30 89f1ebb4 488b4308 0fb60088 44241f48  ....H.C.....D$.H
 401a40 83430801 836b0401 eb864157 41564155  .C...k....AWAVAU
 401a50 41545553 4881ec78 a0000048 89fb89f5  ATUSH..x...H....
 401a60 48895424 1848894c 24204c89 4424284d  H.T$.H.L$ L.D$(M
 401a70 89cf4c8b a424b0a0 00004c8b b424b8a0  ..L..$....L..$..
 401a80 0000c784 244c2000 00000000 00ba0000  ....$L .........
 401a90 0000be01 000000bf 02000000 e827f1ff  .............'..
 401aa0 ff4189c5 85c07919 be602740 00b92600  .A....y..`'@..&.
 401ab0 00004c89 f7f3a4b8 ffffffff e94a0500  ..L..........J..
 401ac0 004889df e8dfefff ff4885c0 7521be88  .H.......H..u!..
 401ad0 274000b9 2f000000 4c89f7f3 a44489ef  '@../...L....D..
 401ae0 e8b3efff ffb8ffff ffffe91c 05000048  ...............H
 401af0 8d9c2460 a0000048 c7030000 000048c7  ..$`...H......H.
 401b00 43080000 000066c7 842460a0 00000200  C.....f..$`.....
 401b10 48635014 488d7304 488b4018 488b38e8  HcP.H.s.H.@.H.8.
 401b20 14f0ffff 66c1cd08 6689ac24 62a00000  ....f...f..$b...
 401b30 ba100000 004889de 4489efe8 48f0ffff  .....H..D...H...
 401b40 85c07921 beb82740 00b92700 00004c89  ..y!..'@..'...L.
 401b50 f7f3a444 89efe83d efffffb8 ffffffff  ...D...=........
 401b60 e9a60400 0048c7c2 ffffffff 4c89e7b8  .....H......L...
 401b70 00000000 4889d1f2 ae4889cb 48f7d348  ....H....H..H..H
 401b80 8b7c2418 4889d1f2 ae4889ce 488b7c24  .|$.H....H..H.|$
 401b90 204889d1 f2ae4889 cd48f7d5 4c89ff48   H....H..H..L..H
 401ba0 89d1f2ae 4829f548 29cd488d 5c5bfd48  ....H).H).H.\[.H
 401bb0 8d441d7b 483d0020 00000f86 81000000  .D.{H=. ........
 401bc0 41c70645 72726f41 c7460472 3a205241  A..ErroA.F.r: RA
 401bd0 c7460865 73756c41 c7460c74 20737441  .F.esulA.F.t stA
 401be0 c7461072 696e6741 c7461420 746f6f41  .F.ringA.F. tooA
 401bf0 c7461820 6c617241 c7461c67 652e2041  .F. larA.F.ge. A
 401c00 c7462049 6e637241 c7462465 61736541  .F IncrA.F$easeA
 401c10 c7462820 53554241 c7462c4d 49545241  .F( SUBA.F,MITRA
 401c20 c746305f 4d415841 c7463442 55460044  .F0_MAXA.F4BUF.D
 401c30 89efe861 eeffffb8 ffffffff e9ca0300  ...a............
 401c40 00488d94 24504000 00b90004 0000b800  .H..$P@.........
 401c50 00000048 89d7f348 ab4c89e7 48c7c1ff  ...H...H.L..H...
 401c60 fffffff2 ae48f7d1 83e9010f 84ac0300  .....H..........
 401c70 004889d3 4c89e544 8d61ff0f b645003c  .H..L..D.a...E.<
 401c80 2a74273c 2d74233c 2e741f3c 5f0f1f00  *t'<-t#<.t.<_...
 401c90 74188d50 d080fa09 76108d50 bf80fa19  t..P....v..P....
 401ca0 76088d50 9f80fa19 77088803 4883c301  v..P....w...H...
 401cb0 eb4b3c20 7509c603 2b4883c3 01eb3e8d  .K< u...+H....>.
 401cc0 50e080fa 5f76043c 0975480f b6d0bef8  P..._v.<.uH.....
 401cd0 26400048 8d7c2430 b8000000 00e876ee  &@.H.|$0......v.
 401ce0 ffff0fb6 44243088 030fb644 24318843  ....D$0....D$1.C
 401cf0 010fb644 24328843 024883c3 034585e4  ...D$2.C.H...E..
 401d00 0f841703 00004883 c5014183 ec01e968  ......H...A....h
 401d10 ffffffbe e0274000 b9430000 004c89f7  .....'@..C...L..
 401d20 f3a44489 efe86eed ffffb8ff ffffffe9  ..D...n.........
 401d30 d7020000 4801c548 89da4889 ee4489ef  ....H..H..H..D..
 401d40 e8e3eeff ff4885c0 7f0de8a9 eeffff83  .....H..........
 401d50 3804750d 4c89f848 29c375d8 4d85e479  8.u.L..H).u.M..y
 401d60 5d4c89f7 be282840 00b82c00 000041f6  ]L...((@..,...A.
 401d70 c6017404 a483e801 40f6c702 740566a5  ..t.....@...t.f.
 401d80 83e80289 c1c1e902 89c9f3a5 ba000000  ................
 401d90 00a80274 0c0fb70c 1666890c 174883c2  ...t.....f...H..
 401da0 02a80174 070fb604 16880417 4489efe8  ...t........D...
 401db0 e4ecffff b8ffffff ffe94d02 00004489  ..........M...D.
 401dc0 ac245080 0000c784 24548000 00000000  .$P.....$T......
 401dd0 00488dbc 24508000 00488d47 10488984  .H..$P...H.G.H..
 401de0 24588000 00488db4 24506000 00ba0020  $X...H..$P`.... 
 401df0 0000e835 fbffff48 85c07f21 be582840  ...5...H...!.X(@
 401e00 00b93600 00004c89 f7f3a444 89efe885  ..6...L....D....
 401e10 ecffffb8 ffffffff e9ee0100 004c8dbc  .............L..
 401e20 24506000 00488d8c 244c2000 00488d94  $P`..H..$L ..H..
 401e30 24502000 004c8d44 2440beff 2640004c  $P ..L.D$@..&@.L
 401e40 89ffb800 000000e8 7cecffff 8b94244c  ........|.....$L
 401e50 20000081 fac80000 000f84b8 00000048   ..............H
 401e60 8d4c2440 be902840 004c89f7 b8000000  .L$@..(@.L......
 401e70 00e8e2ec ffff4489 efe81aec ffffb8ff  ......D.........
 401e80 ffffffe9 83010000 ba002000 004889de  .......... ..H..
 401e90 4c89e7e8 94faffff 4885c00f 8f8b0000  L.......H.......
 401ea0 0041c706 4572726f 41c74604 723a2043  .A..ErroA.F.r: C
 401eb0 41c74608 6c69656e 41c7460c 7420756e  A.F.lienA.F.t un
 401ec0 41c74610 61626c65 41c74614 20746f20  A.F.ableA.F. to 
 401ed0 41c74618 72656164 41c7461c 20686561  A.F.readA.F. hea
 401ee0 41c74620 64657273 41c74624 2066726f  A.F dersA.F$ fro
 401ef0 41c74628 6d207365 41c7462c 72766572  A.F(m seA.F,rver
 401f00 41c64630 004489ef e88bebff ffb8ffff  A.F0.D..........
 401f10 ffffe9f4 00000048 8d9c2450 600000bd  .......H..$P`...
 401f20 10274000 4c8da424 50800000 0fb6033a  .'@.L..$P......:
 401f30 45000f85 50ffffff 0fb64301 3a45010f  E...P.....C.:E..
 401f40 8543ffff ff0fb643 023a4502 0f8536ff  .C.....C.:E...6.
 401f50 ffff488d b4245060 0000488d bc245080  ..H..$P`..H..$P.
 401f60 0000ba00 200000e8 c0f9ffff 4885c07f  .... .......H...
 401f70 5a4c89f7 bec02840 00b83800 000041f6  ZL....(@..8...A.
 401f80 c6017404 a483e801 40f6c702 740566a5  ..t.....@...t.f.
 401f90 83e80289 c1c1e902 89c9f3a5 ba000000  ................
 401fa0 00a80274 0c0fb70c 1666890c 174883c2  ...t.....f...H..
 401fb0 02a80174 070fb604 16880417 4489efe8  ...t........D...
 401fc0 d4eaffff b8ffffff ffeb404c 89fe4c89  ..........@L..L.
 401fd0 f7e832ec ffff4489 efe8baea ffffb813  ..2...D.........
 401fe0 27400041 0fb6163a 10751b41 0fb65601  '@.A...:.u.A..V.
 401ff0 3a500175 11410fb6 56023a50 027507b8  :P.u.A..V.:P.u..
 402000 00000000 eb05b8ff ffffff48 81c478a0  ...........H..x.
 402010 00005b5d 415c415d 415e415f c3488d9c  ..[]A\A]A^A_.H..
 402020 24506000 00488d84 24504000 00488904  $P`..H..$P@..H..
 402030 244d89f9 4c8b4424 28488b4c 2420488b  $M..L.D$(H.L$ H.
 402040 542418be f8284000 4889dfb8 00000000  T$...(@.H.......
 402050 e803ebff ff4889df b8000000 0048c7c1  .....H.......H..
 402060 ffffffff f2ae48f7 d14989cc 4983ec01  ......H..I..I...
 402070 0f8448fd ffff4c89 e3488dac 24506000  ..H...L..H..$P`.
 402080 0041bf00 000000e9 abfcffff 534883ec  .A..........SH..
 402090 104c89c3 85c97422 4889d6bf 16274000  .L....t"H....'@.
 4020a0 b8000000 00e8dee9 ffff66c7 034f4bc6  ..........f..OK.
 4020b0 430200b8 00000000 eb434885 ff743080  C........CH..t0.
 4020c0 3f00742b 4c894424 08488914 2441b92d  ?.t+L.D$.H..$A.-
 4020d0 27400049 89f04889 f9ba3127 4000beb3  '@.I..H...1'@...
 4020e0 360000bf 0e254000 e85df9ff ffeb0e66  6....%@..].....f
 4020f0 c7034f4b c6430200 b8000000 004883c4  ..OK.C.......H..
 402100 105bc348 83ec08ba 00000000 be502940  .[.H.........P)@
 402110 00488b3d 70172000 b8000000 00e8f6ea  .H.=p. .........
 402120 ffffbf01 000000e8 ace9ffff 90909090  ................
 402130 f3c36666 6666662e 0f1f8400 00000000  ..fffff.........
 402140 48896c24 d84c8964 24e0488d 2dbb0d20  H.l$.L.d$.H.-.. 
 402150 004c8d25 b40d2000 4c896c24 e84c8974  .L.%.. .L.l$.L.t
 402160 24f04c89 7c24f848 895c24d0 4883ec38  $.L.|$.H.\$.H..8
 402170 4c29e541 89fd4989 f648c1fd 034989d7  L).A..I..H...I..
 402180 e8dbe8ff ff4885ed 741c31db 0f1f4000  .....H..t.1...@.
 402190 4c89fa4c 89f64489 ef41ff14 dc4883c3  L..L..D..A...H..
 4021a0 014839eb 72ea488b 5c240848 8b6c2410  .H9.r.H.\$.H.l$.
 4021b0 4c8b6424 184c8b6c 24204c8b 7424284c  L.d$.L.l$ L.t$(L
 4021c0 8b7c2430 4883c438 c3909090 90909090  .|$0H..8........
 4021d0 554889e5 534883ec 08488b05 300d2000  UH..SH...H..0. .
 4021e0 4883f8ff 7419bb10 2f60000f 1f440000  H...t.../`...D..
 4021f0 4883eb08 ffd0488b 034883f8 ff75f148  H.....H..H...u.H
 402200 83c4085b c9c39090                    ...[....        
Contents of section .fini:
 402208 4883ec08 e88feaff ff4883c4 08c3      H........H....  
Contents of section .rodata:
 402220 01000200 00000000 00000000 00000000  ................
 402230 72002573 3a204572 726f723a 20436f75  r.%s: Error: Cou
 402240 6c646e27 74206f70 656e2025 730a0055  ldn't open %s..U
 402250 73616765 3a202573 205b3c69 6e707574  sage: %s [<input
 402260 5f66696c 653e5d0a 00546861 74277320  _file>]..That's 
 402270 6e756d62 65722032 2e20204b 65657020  number 2.  Keep 
 402280 676f696e 67210048 616c6677 61792074  going!.Halfway t
 402290 68657265 2100476f 6f642077 6f726b21  here!.Good work!
 4022a0 20204f6e 20746f20 74686520 6e657874    On to the next
 4022b0 2e2e2e00 00000000 57656c63 6f6d6520  ........Welcome 
 4022c0 746f206d 79206669 656e6469 7368206c  to my fiendish l
 4022d0 6974746c 6520626f 6d622e20 596f7520  ittle bomb. You 
 4022e0 68617665 20362070 68617365 73207769  have 6 phases wi
 4022f0 74680000 00000000 77686963 6820746f  th......which to
 402300 20626c6f 7720796f 75727365 6c662075   blow yourself u
 402310 702e2048 61766520 61206e69 63652064  p. Have a nice d
 402320 61792100 00000000 50686173 65203120  ay!.....Phase 1 
 402330 64656675 7365642e 20486f77 2061626f  defused. How abo
 402340 75742074 6865206e 65787420 6f6e653f  ut the next one?
 402350 00000000 00000000 536f2079 6f752067  ........So you g
 402360 6f742074 68617420 6f6e652e 20205472  ot that one.  Tr
 402370 79207468 6973206f 6e652e00 00000000  y this one......
 402380 576f7721 20596f75 27766520 64656675  Wow! You've defu
 402390 73656420 74686520 73656372 65742073  sed the secret s
 4023a0 74616765 21000000 5768656e 20612070  tage!...When a p
 4023b0 726f626c 656d2063 6f6d6573 20616c6f  roblem comes alo
 4023c0 6e672c20 796f7520 6d757374 207a6970  ng, you must zip
 4023d0 20697421 00646576 696c7300 00000000   it!.devils.....
 4023e0 c4114000 00000000 bd114000 00000000  ..@.......@.....
 4023f0 cb114000 00000000 d2114000 00000000  ..@.......@.....
 402400 d9114000 00000000 e0114000 00000000  ..@.......@.....
 402410 e7114000 00000000 ee114000 00000000  ..@.......@.....
 402420 6d616475 69657273 6e666f74 7662796c  maduiersnfotvbyl
 402430 496e7661 6c696420 70686173 6525730a  Invalid phase%s.
 402440 00657870 6c6f6465 64006465 66757365  .exploded.defuse
 402450 64002564 3a25733a 25643a25 73002564  d.%d:%s:%d:%s.%d
 402460 20256420 25730044 72457669 6c000a42   %d %s.DrEvil..B
 402470 4f4f4d21 21210054 68652062 6f6d6220  OOM!!!.The bomb 
 402480 68617320 626c6f77 6e207570 2e002564  has blown up..%d
 402490 20256420 25642025 64202564 20256400   %d %d %d %d %d.
 4024a0 4572726f 723a2050 72656d61 74757265  Error: Premature
 4024b0 20454f46 206f6e20 73746469 6e004752   EOF on stdin.GR
 4024c0 4144455f 424f4d42 00457272 6f723a20  ADE_BOMB.Error: 
 4024d0 496e7075 74206c69 6e652074 6f6f206c  Input line too l
 4024e0 6f6e6700 496e6974 69616c69 7a617469  ong.Initializati
 4024f0 6f6e2065 72726f72 3a0a2573 0a005765  on error:.%s..We
 402500 6c6c2e2e 2e004f4b 2e203a2d 29007374  ll....OK. :-).st
 402510 7564656e 742e6373 2e617070 73746174  udent.cs.appstat
 402520 652e6564 75000000 4552524f 523a2049  e.edu...ERROR: I
 402530 6e707574 20737472 696e6720 69732074  nput string is t
 402540 6f6f206c 61726765 2e000000 00000000  oo large........
 402550 43757273 65732c20 796f7527 76652066  Curses, you've f
 402560 6f756e64 20746865 20736563 72657420  ound the secret 
 402570 70686173 65210000 42757420 66696e64  phase!..But find
 402580 696e6720 69742061 6e642073 6f6c7669  ing it and solvi
 402590 6e672069 74206172 65207175 69746520  ng it are quite 
 4025a0 64696666 6572656e 742e2e2e 00000000  different.......
 4025b0 436f6e67 72617475 6c617469 6f6e7321  Congratulations!
 4025c0 20596f75 27766520 64656675 73656420   You've defused 
 4025d0 74686520 626f6d62 21000000 00000000  the bomb!.......
 4025e0 596f7572 20696e73 74727563 746f7220  Your instructor 
 4025f0 68617320 6265656e 206e6f74 69666965  has been notifie
 402600 6420616e 64207769 6c6c2076 65726966  d and will verif
 402610 7920796f 75722073 6f6c7574 696f6e2e  y your solution.
 402620 00000000 00000000 596f7572 20696e73  ........Your ins
 402630 74727563 746f7220 68617320 6265656e  tructor has been
 402640 206e6f74 69666965 642e0000 00000000   notified.......
 402650 496e6974 69616c69 7a617469 6f6e2065  Initialization e
 402660 72726f72 3a205275 6e6e696e 67206f6e  rror: Running on
 402670 20616e20 696c6c65 67616c20 686f7374   an illegal host
 402680 205b315d 00000000 496e6974 69616c69   [1]....Initiali
 402690 7a617469 6f6e2065 72726f72 3a205275  zation error: Ru
 4026a0 6e6e696e 67206f6e 20616e20 696c6c65  nning on an ille
 4026b0 67616c20 686f7374 205b325d 00000000  gal host [2]....
 4026c0 536f2079 6f752074 68696e6b 20796f75  So you think you
 4026d0 2063616e 2073746f 70207468 6520626f   can stop the bo
 4026e0 6d622077 69746820 6374726c 2d632c20  mb with ctrl-c, 
 4026f0 646f2079 6f753f00 25252530 32580025  do you?.%%%02X.%
 402700 73202564 20255b61 2d7a412d 7a205d00  s %d %[a-zA-z ].
 402710 0d0a004f 4b000a41 55544f52 4553554c  ...OK..AUTORESUL
 402720 545f5354 52494e47 3d25730a 00663137  T_STRING=%s..f17
 402730 00637361 70700000 4572726f 723a2055  .csapp..Error: U
 402740 6e61626c 6520746f 20636f6e 6e656374  nable to connect
 402750 20746f20 73657276 65722025 73000000   to server %s...
 402760 4572726f 723a2043 6c69656e 7420756e  Error: Client un
 402770 61626c65 20746f20 63726561 74652073  able to create s
 402780 6f636b65 74000000 4572726f 723a2044  ocket...Error: D
 402790 4e532069 7320756e 61626c65 20746f20  NS is unable to 
 4027a0 7265736f 6c766520 73657276 65722061  resolve server a
 4027b0 64647265 73730000 4572726f 723a2055  ddress..Error: U
 4027c0 6e61626c 6520746f 20636f6e 6e656374  nable to connect
 4027d0 20746f20 74686520 73657276 65720000   to the server..
 4027e0 4572726f 723a2052 6573756c 74207374  Error: Result st
 4027f0 72696e67 20636f6e 7461696e 7320616e  ring contains an
 402800 20696c6c 6567616c 206f7220 756e7072   illegal or unpr
 402810 696e7461 626c6520 63686172 61637465  intable characte
 402820 722e0000 00000000 4572726f 723a2043  r.......Error: C
 402830 6c69656e 7420756e 61626c65 20746f20  lient unable to 
 402840 77726974 6520746f 20746865 20736572  write to the ser
 402850 76657200 00000000 4572726f 723a2043  ver.....Error: C
 402860 6c69656e 7420756e 61626c65 20746f20  lient unable to 
 402870 72656164 20666972 73742068 65616465  read first heade
 402880 72206672 6f6d2073 65727665 72000000  r from server...
 402890 4572726f 723a2048 54545020 72657175  Error: HTTP requ
 4028a0 65737420 6661696c 65642077 69746820  est failed with 
 4028b0 6572726f 72202564 3a202573 00000000  error %d: %s....
 4028c0 4572726f 723a2043 6c69656e 7420756e  Error: Client un
 4028d0 61626c65 20746f20 72656164 20737461  able to read sta
 4028e0 74757320 6d657373 61676520 66726f6d  tus message from
 4028f0 20736572 76657200 47455420 2f25732f   server.GET /%s/
 402900 7375626d 6974722e 706c2f3f 75736572  submitr.pl/?user
 402910 69643d25 73267573 65727077 643d2573  id=%s&userpwd=%s
 402920 266c6162 3d257326 72657375 6c743d25  &lab=%s&result=%
 402930 73267375 626d6974 3d737562 6d697420  s&submit=submit 
 402940 48545450 2f312e30 0d0a0d0a 00000000  HTTP/1.0........
 402950 50726f67 72616d20 74696d65 64206f75  Program timed ou
 402960 74206166 74657220 25642073 65636f6e  t after %d secon
 402970 64730a00 00000000                    ds......        
Contents of section .eh_frame_hdr:
 402978 011b033b 04010000 1f000000 bce3ffff  ...;............
 402988 20010000 f8e4ffff 50010000 4fe5ffff   .......P...O...
 402998 70010000 8be5ffff 88010000 dbe5ffff  p...............
 4029a8 a8010000 fae6ffff e8010000 3ee7ffff  ............>...
 4029b8 10020000 9ce7ffff 30020000 b9e7ffff  ........0.......
 4029c8 48020000 0ce8ffff 60020000 98e8ffff  H.......`.......
 4029d8 78020000 b4e8ffff 90020000 0ae9ffff  x...............
 4029e8 c0020000 0ce9ffff d8020000 2ce9ffff  ............,...
 4029f8 f0020000 eee9ffff 18030000 77eaffff  ............w...
 402a08 30030000 adeaffff 48030000 efeaffff  0.......H.......
 402a18 60030000 2cebffff 88030000 6debffff  `...,.......m...
 402a28 a8030000 a8ecffff d8030000 65edffff  ............e...
 402a38 08040000 b8edffff 20040000 8defffff  ........ .......
 402a48 58040000 b4efffff 78040000 d2f0ffff  X.......x.......
 402a58 c8040000 14f7ffff 18050000 8bf7ffff  ................
 402a68 38050000 b8f7ffff 50050000 c8f7ffff  8.......P.......
 402a78 68050000                             h...            
Contents of section .eh_frame:
 402a80 14000000 00000000 017a5200 01781001  .........zR..x..
 402a90 1b0c0708 90010000 2c000000 1c000000  ........,.......
 402aa0 94e2ffff 3b010000 00410e10 8602410e  ....;....A....A.
 402ab0 18830344 0e200332 010e1841 0e10410e  ...D. .2...A..A.
 402ac0 08000000 00000000 1c000000 4c000000  ............L...
 402ad0 a0e3ffff 57000000 00530e20 8c028603  ....W....S. ....
 402ae0 83040243 0e080000 14000000 6c000000  ...C........l...
 402af0 d7e3ffff 3c000000 00440e10 770e0800  ....<....D..w...
 402b00 1c000000 84000000 fbe3ffff 50000000  ............P...
 402b10 00410e10 8302024e 0e080000 00000000  .A.....N........
 402b20 3c000000 a4000000 2be4ffff 1f010000  <.......+.......
 402b30 00420e10 8d02420e 188c0341 0e208604  .B....B....A. ..
 402b40 410e2883 05440e80 01030e01 0e28410e  A.(..D.......(A.
 402b50 20410e18 420e1042 0e080000 00000000   A..B..B........
 402b60 24000000 e4000000 0ae5ffff 44000000  $...........D...
 402b70 00410e10 8602410e 18830344 0e407b0e  .A....A....D.@{.
 402b80 18410e10 410e0800 1c000000 0c010000  .A..A...........
 402b90 26e5ffff 5e000000 00410e10 8302440e  &...^....A....D.
 402ba0 2002570e 10410e08 14000000 2c010000   .W..A......,...
 402bb0 64e5ffff 1d000000 00440e10 570e0800  d........D..W...
 402bc0 14000000 44010000 69e5ffff 53000000  ....D...i...S...
 402bd0 00440e20 024e0e08 14000000 5c010000  .D. .N......\...
 402be0 a4e5ffff 8b000000 00440e20 02860e08  .........D. ....
 402bf0 14000000 74010000 18e6ffff 1c000000  ....t...........
 402c00 00000000 00000000 2c000000 8c010000  ........,.......
 402c10 1ce6ffff 56000000 00420e10 8c02410e  ....V....B....A.
 402c20 18860341 0e208304 024e0e18 410e1042  ...A. ...N..A..B
 402c30 0e080000 00000000 14000000 bc010000  ................
 402c40 42e6ffff 02000000 00000000 00000000  B...............
 402c50 14000000 d4010000 2ce6ffff 20000000  ........,... ...
 402c60 00440e10 00000000 24000000 ec010000  .D......$.......
 402c70 34e6ffff c2000000 00410e10 8302470e  4........A....G.
 402c80 90800102 b80e1041 0e080000 00000000  .......A........
 402c90 14000000 14020000 cee6ffff 89000000  ................
 402ca0 00440e70 02840e08 14000000 2c020000  .D.p........,...
 402cb0 3fe7ffff 36000000 00440e10 00000000  ?...6....D......
 402cc0 14000000 44020000 5de7ffff 42000000  ....D...]...B...
 402cd0 00440e20 7d0e0800 24000000 5c020000  .D. }...$...\...
 402ce0 87e7ffff 3d000000 00410e10 8602410e  ....=....A....A.
 402cf0 18830344 0e20740e 18410e10 410e0800  ...D. t..A..A...
 402d00 1c000000 84020000 9ce7ffff 41000000  ............A...
 402d10 00410e10 83027f0e 08000000 00000000  .A..............
 402d20 2c000000 a4020000 bde7ffff 3b010000  ,...........;...
 402d30 00410e10 8602410e 18830344 0e200332  .A....A....D. .2
 402d40 010e1841 0e10410e 08000000 00000000  ...A..A.........
 402d50 2c000000 d4020000 c8e8ffff bd000000  ,...............
 402d60 00410e10 8602410e 18830347 0ee04002  .A....A....G..@.
 402d70 b10e1841 0e10410e 08000000 00000000  ...A..A.........
 402d80 14000000 04030000 55e9ffff 51000000  ........U...Q...
 402d90 00440e10 00000000 34000000 1c030000  .D......4.......
 402da0 90e9ffff d5010000 00420e10 8c02410e  .........B....A.
 402db0 18860341 0e208304 440e3003 c8010e20  ...A. ..D.0.... 
 402dc0 410e1841 0e10420e 08000000 00000000  A..A..B.........
 402dd0 1c000000 54030000 2debffff 27000000  ....T...-...'...
 402de0 00410e10 8302650e 08000000 00000000  .A....e.........
 402df0 4c000000 74030000 34ebffff 1e010000  L...t...4.......
 402e00 00420e10 8f02420e 188e0342 0e208d04  .B....B....B. ..
 402e10 420e288c 05410e30 8606410e 38830744  B.(..A.0..A.8..D
 402e20 0e6002e5 0a0e3841 0e30410e 28420e20  .`....8A.0A.(B. 
 402e30 420e1842 0e10420e 08410b00 00000000  B..B..B..A......
 402e40 4c000000 c4030000 02ecffff 42060000  L...........B...
 402e50 00420e10 8f02420e 188e0342 0e208d04  .B....B....B. ..
 402e60 420e288c 05410e30 8606410e 38830747  B.(..A.0..A.8..G
 402e70 0eb0c102 03b7050a 0e38410e 30410e28  .........8A.0A.(
 402e80 420e2042 0e18420e 10420e08 410b0000  B. B..B..B..A...
 402e90 1c000000 14040000 f4f1ffff 77000000  ............w...
 402ea0 00410e10 8302440e 2002700e 10410e08  .A....D. .p..A..
 402eb0 14000000 34040000 4bf2ffff 29000000  ....4...K...)...
 402ec0 00440e10 00000000 14000000 4c040000  .D..........L...
 402ed0 60f2ffff 02000000 00000000 00000000  `...............
 402ee0 24000000 64040000 58f2ffff 89000000  $...d...X.......
 402ef0 00518c05 86065f0e 4083078f 028e038d  .Q...._.@.......
 402f00 0402580e 08000000 00000000           ..X.........    
Contents of section .ctors:
 602f10 ffffffff ffffffff 00000000 00000000  ................
Contents of section .dtors:
 602f20 ffffffff ffffffff 00000000 00000000  ................
Contents of section .jcr:
 602f30 00000000 00000000                    ........        
Contents of section .dynamic:
 602f38 01000000 00000000 10000000 00000000  ................
 602f48 0c000000 00000000 600a4000 00000000  ........`.@.....
 602f58 0d000000 00000000 08224000 00000000  ........."@.....
 602f68 f5feff6f 00000000 60024000 00000000  ...o....`.@.....
 602f78 05000000 00000000 a8054000 00000000  ..........@.....
 602f88 06000000 00000000 90024000 00000000  ..........@.....
 602f98 0a000000 00000000 36010000 00000000  ........6.......
 602fa8 0b000000 00000000 18000000 00000000  ................
 602fb8 15000000 00000000 00000000 00000000  ................
 602fc8 03000000 00000000 d0306000 00000000  .........0`.....
 602fd8 02000000 00000000 a0020000 00000000  ................
 602fe8 14000000 00000000 07000000 00000000  ................
 602ff8 17000000 00000000 c0074000 00000000  ..........@.....
 603008 07000000 00000000 60074000 00000000  ........`.@.....
 603018 08000000 00000000 60000000 00000000  ........`.......
 603028 09000000 00000000 18000000 00000000  ................
 603038 feffff6f 00000000 20074000 00000000  ...o.... .@.....
 603048 ffffff6f 00000000 01000000 00000000  ...o............
 603058 f0ffff6f 00000000 de064000 00000000  ...o......@.....
 603068 00000000 00000000 00000000 00000000  ................
 603078 00000000 00000000 00000000 00000000  ................
 603088 00000000 00000000 00000000 00000000  ................
 603098 00000000 00000000 00000000 00000000  ................
 6030a8 00000000 00000000 00000000 00000000  ................
 6030b8 00000000 00000000 00000000 00000000  ................
Contents of section .got:
 6030c8 00000000 00000000                    ........        
Contents of section .got.plt:
 6030d0 382f6000 00000000 00000000 00000000  8/`.............
 6030e0 00000000 00000000 8e0a4000 00000000  ..........@.....
 6030f0 9e0a4000 00000000 ae0a4000 00000000  ..@.......@.....
 603100 be0a4000 00000000 ce0a4000 00000000  ..@.......@.....
 603110 de0a4000 00000000 ee0a4000 00000000  ..@.......@.....
 603120 fe0a4000 00000000 0e0b4000 00000000  ..@.......@.....
 603130 1e0b4000 00000000 2e0b4000 00000000  ..@.......@.....
 603140 3e0b4000 00000000 4e0b4000 00000000  >.@.....N.@.....
 603150 5e0b4000 00000000 6e0b4000 00000000  ^.@.....n.@.....
 603160 7e0b4000 00000000 8e0b4000 00000000  ~.@.......@.....
 603170 9e0b4000 00000000 ae0b4000 00000000  ..@.......@.....
 603180 be0b4000 00000000 ce0b4000 00000000  ..@.......@.....
 603190 de0b4000 00000000 ee0b4000 00000000  ..@.......@.....
 6031a0 fe0b4000 00000000 0e0c4000 00000000  ..@.......@.....
 6031b0 1e0c4000 00000000 2e0c4000 00000000  ..@.......@.....
 6031c0 3e0c4000 00000000                    >.@.....        
Contents of section .data:
 6031e0 00000000 00000000 00000000 00000000  ................
 6031f0 24000000 00000000 00000000 00000000  $...............
 603200 68617272 69736264 636f6f6b 61623100  harrisbdcookab1.
 603210 6774304b 72364434 5656464b 4f706d51  gt0Kr6D4VVFKOpmQ
 603220 36336b49 00000000 00000000 00000000  63kI............
 603230 2f030000 06000000 00000000 00000000  /...............
 603240 95020000 05000000 30326000 00000000  ........02`.....
 603250 e1030000 04000000 40326000 00000000  ........@2`.....
 603260 c3010000 03000000 50326000 00000000  ........P2`.....
 603270 32020000 02000000 60326000 00000000  2.......`2`.....
 603280 37020000 01000000 70326000 00000000  7.......p2`.....
 603290 e9030000 00000000 00000000 00000000  ................
 6032a0 00000000 00000000 00000000 00000000  ................
 6032b0 2f000000 00000000 00000000 00000000  /...............
 6032c0 00000000 00000000 00000000 00000000  ................
 6032d0 14000000 00000000 00000000 00000000  ................
 6032e0 00000000 00000000 00000000 00000000  ................
 6032f0 07000000 00000000 00000000 00000000  ................
 603300 00000000 00000000 00000000 00000000  ................
 603310 23000000 00000000 00000000 00000000  #...............
 603320 00000000 00000000 00000000 00000000  ................
 603330 63000000 00000000 00000000 00000000  c...............
 603340 00000000 00000000 00000000 00000000  ................
 603350 01000000 00000000 00000000 00000000  ................
 603360 00000000 00000000 00000000 00000000  ................
 603370 28000000 00000000 00000000 00000000  (...............
 603380 00000000 00000000 00000000 00000000  ................
 603390 6b000000 00000000 30336000 00000000  k.......03`.....
 6033a0 90326000 00000000 00000000 00000000  .2`.............
 6033b0 06000000 00000000 50336000 00000000  ........P3`.....
 6033c0 f0326000 00000000 00000000 00000000  .2`.............
 6033d0 2d000000 00000000 70336000 00000000  -.......p3`.....
 6033e0 b0326000 00000000 00000000 00000000  .2`.............
 6033f0 16000000 00000000 d0326000 00000000  .........2`.....
 603400 10336000 00000000 00000000 00000000  .3`.............
 603410 32000000 00000000 d0336000 00000000  2........3`.....
 603420 90336000 00000000 00000000 00000000  .3`.............
 603430 08000000 00000000 b0336000 00000000  .........3`.....
 603440 f0336000 00000000 00000000 00000000  .3`.............
 603450 24000000 00000000 30346000 00000000  $.......04`.....
 603460 10346000 00000000 00000000 00000000  .4`.............
 603470 00000000 00000000 00000000 00000000  ................
 603480 0e254000 00000000 00000000 00000000  .%@.............
 603490 00000000 00000000 00000000 00000000  ................
 6034a0 00000000 00000000 00000000 00000000  ................
 6034b0 00000000 00000000 00000000 00000000  ................
 6034c0 00000000 00000000 00000000 00000000  ................
 6034d0 00000000 00000000 00000000 00000000  ................
 6034e0 00000000 00000000 00000000 00000000  ................
 6034f0 00000000 00000000 00000000 00000000  ................
 603500 00000000 00000000 00000000 00000000  ................
 603510 00000000 00000000 00000000 00000000  ................
 603520 00000000 00000000 00000000 00000000  ................
 603530 00000000 00000000 00000000 00000000  ................
 603540 00000000 00000000 00000000 00000000  ................
 603550 00000000 00000000 00000000 00000000  ................
 603560 00000000 00000000 00000000 00000000  ................
 603570 00000000 00000000 00000000 00000000  ................
 603580 00000000 00000000 00000000 00000000  ................
 603590 00000000 00000000 00000000 00000000  ................
 6035a0 00000000 00000000 00000000 00000000  ................
 6035b0 00000000 00000000 00000000 00000000  ................
 6035c0 00000000 00000000 00000000 00000000  ................
 6035d0 00000000 00000000 00000000 00000000  ................
 6035e0 00000000 00000000 00000000 00000000  ................
 6035f0 00000000 00000000 00000000 00000000  ................
 603600 00000000 00000000 00000000 00000000  ................
 603610 00000000 00000000 00000000 00000000  ................
 603620 00000000 00000000 00000000 00000000  ................
 603630 00000000 00000000 00000000 00000000  ................
 603640 00000000 00000000 00000000 00000000  ................
 603650 00000000 00000000 00000000 00000000  ................
 603660 00000000 00000000 00000000 00000000  ................
 603670 00000000 00000000 00000000 00000000  ................
 603680 00000000 00000000 00000000 00000000  ................
 603690 00000000 00000000 00000000 00000000  ................
 6036a0 00000000 00000000 00000000 00000000  ................
 6036b0 00000000 00000000 00000000 00000000  ................
 6036c0 00000000 00000000 00000000 00000000  ................
 6036d0 00000000 00000000 00000000 00000000  ................
 6036e0 00000000 00000000 00000000 00000000  ................
 6036f0 00000000 00000000 00000000 00000000  ................
 603700 00000000 00000000 00000000 00000000  ................
 603710 00000000 00000000 00000000 00000000  ................
 603720 00000000 00000000 00000000 00000000  ................
 603730 00000000 00000000 00000000 00000000  ................
 603740 00000000 00000000 00000000 00000000  ................
 603750 00000000 00000000 00000000 00000000  ................
 603760 00000000 00000000 00000000 00000000  ................
 603770 00000000 00000000 00000000 00000000  ................
 603780 00000000 00000000 00000000 00000000  ................
 603790 00000000 00000000 00000000 00000000  ................
 6037a0 00000000 00000000 00000000 00000000  ................
 6037b0 00000000 00000000 00000000 00000000  ................
 6037c0 00000000 00000000 00000000 00000000  ................
 6037d0 00000000 00000000 00000000 00000000  ................
 6037e0 00000000 00000000 00000000 00000000  ................
 6037f0 00000000 00000000 00000000 00000000  ................
 603800 00000000 00000000 00000000 00000000  ................
 603810 00000000 00000000 00000000 00000000  ................
 603820 00000000 00000000 00000000 00000000  ................
 603830 00000000 00000000 00000000 00000000  ................
 603840 00000000 00000000 00000000 00000000  ................
 603850 00000000 00000000 00000000 00000000  ................
 603860 00000000 00000000 00000000 00000000  ................
 603870 00000000 00000000 00000000 00000000  ................
Contents of section .comment:
 0000 4743433a 2028474e 55292034 2e342e37  GCC: (GNU) 4.4.7
 0010 20323031 32303331 33202852 65642048   20120313 (Red H
 0020 61742034 2e342e37 2d313729 00474343  at 4.4.7-17).GCC
 0030 3a202847 4e552920 342e342e 37203230  : (GNU) 4.4.7 20
 0040 31323033 31332028 52656420 48617420  120313 (Red Hat 
 0050 342e342e 372d3138 2900               4.4.7-18).      
Contents of section .debug_aranges:
 0000 2c000000 02000000 00000800 00000000  ,...............
 0010 340d4000 00000000 3b010000 00000000  4.@.....;.......
 0020 00000000 00000000 00000000 00000000  ................
Contents of section .debug_pubnames:
 0000 22000000 02000000 00006903 0000b402  ".........i.....
 0010 00006d61 696e0052 03000069 6e66696c  ..main.R...infil
 0020 65000000 0000                        e.....          
Contents of section .debug_info:
 0000 65030000 03000000 00000801 f5000000  e...............
 0010 01b60000 006a0000 00340d40 00000000  .....j...4.@....
 0020 006f0e40 00000000 00000000 00021700  .o.@............
 0030 000002d3 38000000 0308076c 01000003  ....8......l....
 0040 0108a800 00000302 07c40000 00030407  ................
 0050 71010000 030106aa 00000003 0205e101  q...............
 0060 00000404 05696e74 00030805 c3010000  .....int........
 0070 02ad0100 00038d69 00000002 00000000  .......i........
 0080 038e6900 00000508 06088e00 00000301  ..i.............
 0090 06b10000 00022200 00000431 a0000000  ......"....1....
 00a0 071e0000 00d8050f 013c0200 0008fb01  .........<......
 00b0 00000510 01620000 00000850 00000005  .....b.....P....
 00c0 15018800 00000808 0a000000 05160188  ................
 00d0 00000010 08290200 00051701 88000000  .....)..........
 00e0 18082700 00000518 01880000 0020080e  ..'.......... ..
 00f0 02000005 19018800 00002808 d3010000  ..........(.....
 0100 051a0188 00000030 08860100 00051b01  .......0........
 0110 88000000 38083600 0000051c 01880000  ....8.6.........
 0120 00c00008 9a000000 051e0188 000000c8  ................
 0130 0008eb01 0000051f 01880000 00d00008  ................
 0140 dd000000 05200188 000000d8 00081d01  ..... ..........
 0150 00000522 01740200 00e00008 63000000  ...".t......c...
 0160 0524017a 020000e8 00087e01 00000526  .$.z......~....&
 0170 01620000 00f00008 30010000 052a0162  .b......0....*.b
 0180 000000f4 00083e01 0000052c 01700000  ......>....,.p..
 0190 00f80008 5b010000 05300146 00000080  ....[....0.F....
 01a0 01089901 00000531 01540000 00820108  .......1.T......
 01b0 3e020000 05320180 02000083 01084a01  >....2........J.
 01c0 00000536 01900200 00880108 42010000  ...6........B...
 01d0 053f017b 00000090 01080702 00000548  .?.{...........H
 01e0 01860000 00980108 42000000 05490186  ........B....I..
 01f0 000000a0 01084900 0000054a 01860000  ......I....J....
 0200 00a80108 bd000000 054b0186 000000b0  .........K......
 0210 01082202 0000054c 012d0000 00b80108  .."....L.-......
 0220 5d000000 054e0162 000000c0 0108b501  ]....N.b........
 0230 00000550 01960200 00c40100 09ea0000  ...P............
 0240 0005b40a 50010000 1805ba74 0200000b  ....P......t....
 0250 93010000 05bb7402 0000000b 38010000  ......t.....8...
 0260 05bc7a02 0000080b 26010000 05c06200  ..z.....&.....b.
 0270 00001000 06084302 00000608 a0000000  ......C.........
 0280 0c8e0000 00900200 000d3800 00000000  ..........8.....
 0290 06083c02 00000c8e 000000a6 0200000d  ..<.............
 02a0 38000000 13000308 05be0100 00030807  8...............
 02b0 67010000 0e012b01 00000124 01620000  g.....+....$.b..
 02c0 00340d40 00000000 006f0e40 00000000  .4.@.....o.@....
 02d0 00019c05 0300000f a8010000 01246200  .............$b.
 02e0 00000000 00000f02 02000001 24050300  ............$...
 02f0 00360000 00101c02 00000126 88000000  .6.........&....
 0300 6c000000 00060888 00000011 d7000000  l...............
 0310 04a57a02 00000101 11cc0100 0004a67a  ..z............z
 0320 02000001 01113702 00000122 32030000  ......7...."2...
 0330 01010608 95000000 11d70000 0004a57a  ...............z
 0340 02000001 0111cc01 000004a6 7a020000  ............z...
 0350 01011237 02000001 22320300 00010903  ...7...."2......
 0360 b0386000 00000000 00                 .8`......       
Contents of section .debug_abbrev:
 0000 01110125 0e130b03 0e1b0e11 01120110  ...%............
 0010 06000002 1600030e 3a0b3b0b 49130000  ........:.;.I...
 0020 0324000b 0b3e0b03 0e000004 24000b0b  .$...>......$...
 0030 3e0b0308 0000050f 000b0b00 00060f00  >...............
 0040 0b0b4913 00000713 01030e0b 0b3a0b3b  ..I..........:.;
 0050 05011300 00080d00 030e3a0b 3b054913  ..........:.;.I.
 0060 380d0000 09160003 0e3a0b3b 0b00000a  8........:.;....
 0070 1301030e 0b0b3a0b 3b0b0113 00000b0d  ......:.;.......
 0080 00030e3a 0b3b0b49 13380d00 000c0101  ...:.;.I.8......
 0090 49130113 00000d21 0049132f 0b00000e  I......!.I./....
 00a0 2e013f0c 030e3a0b 3b0b270c 49131101  ..?...:.;.'.I...
 00b0 1201400a 01130000 0f050003 0e3a0b3b  ..@..........:.;
 00c0 0b491302 06000010 3400030e 3a0b3b0b  .I......4...:.;.
 00d0 49130206 00001134 00030e3a 0b3b0b49  I......4...:.;.I
 00e0 133f0c3c 0c000012 3400030e 3a0b3b0b  .?.<....4...:.;.
 00f0 49133f0c 020a0000 00                 I.?......       
Contents of section .debug_line:
 0000 d7000000 02009800 00000101 fb0e0d00  ................
 0010 01010101 00000001 0000012f 7573722f  .........../usr/
 0020 6c69622f 6763632f 7838365f 36342d72  lib/gcc/x86_64-r
 0030 65646861 742d6c69 6e75782f 342e342e  edhat-linux/4.4.
 0040 372f696e 636c7564 65002f75 73722f69  7/include./usr/i
 0050 6e636c75 64652f62 69747300 2f757372  nclude/bits./usr
 0060 2f696e63 6c756465 0000626f 6d622e63  /include..bomb.c
 0070 00000000 73746464 65662e68 00010000  ....stddef.h....
 0080 74797065 732e6800 02000073 7464696f  types.h....stdio
 0090 2e680003 00006c69 62696f2e 68000300  .h....libio.h...
 00a0 00000009 02340d40 00000000 00032401  .....4.@......$.
 00b0 9859f959 08c90813 a40821a2 5a9fa159  .Y.Y......!.Z..Y
 00c0 835aa259 8359a259 8359a159 8359a159  .Z.Y.Y.Y.Y.Y.Y.Y
 00d0 8359a259 835e020c 000101             .Y.Y.^.....     
Contents of section .debug_str:
 0000 5f5f6f66 6636345f 74005f49 4f5f7265  __off64_t._IO_re
 0010 61645f65 6e640073 697a655f 74005f49  ad_end.size_t._I
 0020 4f5f4649 4c45005f 494f5f77 72697465  O_FILE._IO_write
 0030 5f626173 65005f49 4f5f6275 665f656e  _base._IO_buf_en
 0040 64005f5f 70616432 005f5f70 61643300  d.__pad2.__pad3.
 0050 5f494f5f 72656164 5f707472 005f6d6f  _IO_read_ptr._mo
 0060 6465005f 63686169 6e002f75 2f637364  de._chain./u/csd
 0070 2f656662 2f636c61 73736573 2f333438  /efb/classes/348
 0080 322f6c61 622f4353 41505033 652f626f  2/lab/CSAPP3e/bo
 0090 6d626c61 622f7372 63005f49 4f5f7361  mblab/src._IO_sa
 00a0 76655f62 61736500 756e7369 676e6564  ve_base.unsigned
 00b0 20636861 7200626f 6d622e63 005f5f70   char.bomb.c.__p
 00c0 61643400 73686f72 7420756e 7369676e  ad4.short unsign
 00d0 65642069 6e740073 7464696e 005f494f  ed int.stdin._IO
 00e0 5f736176 655f656e 64005f49 4f5f6c6f  _save_end._IO_lo
 00f0 636b5f74 00474e55 20432034 2e342e37  ck_t.GNU C 4.4.7
 0100 20323031 32303331 33202852 65642048   20120313 (Red H
 0110 61742034 2e342e37 2d313829 005f6d61  at 4.4.7-18)._ma
 0120 726b6572 73005f70 6f73006d 61696e00  rkers._pos.main.
 0130 5f666c61 67733200 5f736275 66005f6f  _flags2._sbuf._o
 0140 6c645f6f 66667365 74005f6c 6f636b00  ld_offset._lock.
 0150 5f494f5f 6d61726b 6572005f 6375725f  _IO_marker._cur_
 0160 636f6c75 6d6e006c 6f6e6720 6c6f6e67  column.long long
 0170 20756e73 69676e65 6420696e 74005f66   unsigned int._f
 0180 696c656e 6f005f49 4f5f6275 665f6261  ileno._IO_buf_ba
 0190 7365005f 6e657874 005f7674 61626c65  se._next._vtable
 01a0 5f6f6666 73657400 61726763 005f5f6f  _offset.argc.__o
 01b0 66665f74 005f756e 75736564 32006c6f  ff_t._unused2.lo
 01c0 6e67206c 6f6e6720 696e7400 7374646f  ng long int.stdo
 01d0 7574005f 494f5f77 72697465 5f656e64  ut._IO_write_end
 01e0 0073686f 72742069 6e74005f 494f5f62  .short int._IO_b
 01f0 61636b75 705f6261 7365005f 666c6167  ackup_base._flag
 0200 73006172 6776005f 5f706164 31005f49  s.argv.__pad1._I
 0210 4f5f7772 6974655f 70747200 696e7075  O_write_ptr.inpu
 0220 74005f5f 70616435 005f494f 5f726561  t.__pad5._IO_rea
 0230 645f6261 73650069 6e66696c 65005f73  d_base.infile._s
 0240 686f7274 62756600                    hortbuf.        
Contents of section .debug_loc:
 0000 00000000 00000000 30000000 00000000  ........0.......
 0010 0100555c 00000000 00000064 00000000  ..U\.......d....
 0020 00000001 00550000 00000000 00000000  .....U..........
 0030 00000000 00000000 00000000 00000e00  ................
 0040 00000000 00000100 540e0000 00000000  ........T.......
 0050 00390100 00000000 00010053 00000000  .9.........S....
 0060 00000000 00000000 00000000 96000000  ................
 0070 00000000 9d000000 00000000 010050b2  ..............P.
 0080 00000000 000000b9 00000000 00000001  ................
 0090 0050ce00 00000000 0000d500 00000000  .P..............
 00a0 00000100 50ea0000 00000000 00f10000  ....P...........
 00b0 00000000 00010050 06010000 00000000  .......P........
 00c0 0d010000 00000000 01005022 01000000  ..........P"....
 00d0 00000029 01000000 00000001 00500000  ...).........P..
 00e0 00000000 00000000 00000000 0000      ..............  
Contents of section .debug_pubtypes:
 0000 67000000 02000000 00006903 00002d00  g.........i...-.
 0010 00007369 7a655f74 00700000 005f5f6f  ..size_t.p...__o
 0020 66665f74 007b0000 005f5f6f 66663634  ff_t.{...__off64
 0030 5f740095 00000046 494c4500 3c020000  _t.....FILE.<...
 0040 5f494f5f 6c6f636b 5f740043 0200005f  _IO_lock_t.C..._
 0050 494f5f6d 61726b65 7200a000 00005f49  IO_marker....._I
 0060 4f5f4649 4c450000 000000             O_FILE.....     

Disassembly of section .init:

0000000000400a60 <_init>:
  400a60:	48 83 ec 08          	sub    $0x8,%rsp
  400a64:	e8 13 02 00 00       	callq  400c7c <call_gmon_start>
  400a69:	e8 a2 02 00 00       	callq  400d10 <frame_dummy>
  400a6e:	e8 5d 17 00 00       	callq  4021d0 <__do_global_ctors_aux>
  400a73:	48 83 c4 08          	add    $0x8,%rsp
  400a77:	c3                   	retq   

Disassembly of section .plt:

0000000000400a78 <printf@plt-0x10>:
  400a78:	ff 35 5a 26 20 00    	pushq  0x20265a(%rip)        # 6030d8 <_GLOBAL_OFFSET_TABLE_+0x8>
  400a7e:	ff 25 5c 26 20 00    	jmpq   *0x20265c(%rip)        # 6030e0 <_GLOBAL_OFFSET_TABLE_+0x10>
  400a84:	0f 1f 40 00          	nopl   0x0(%rax)

0000000000400a88 <printf@plt>:
  400a88:	ff 25 5a 26 20 00    	jmpq   *0x20265a(%rip)        # 6030e8 <_GLOBAL_OFFSET_TABLE_+0x18>
  400a8e:	68 00 00 00 00       	pushq  $0x0
  400a93:	e9 e0 ff ff ff       	jmpq   400a78 <_init+0x18>

0000000000400a98 <close@plt>:
  400a98:	ff 25 52 26 20 00    	jmpq   *0x202652(%rip)        # 6030f0 <_GLOBAL_OFFSET_TABLE_+0x20>
  400a9e:	68 01 00 00 00       	pushq  $0x1
  400aa3:	e9 d0 ff ff ff       	jmpq   400a78 <_init+0x18>

0000000000400aa8 <gethostbyname@plt>:
  400aa8:	ff 25 4a 26 20 00    	jmpq   *0x20264a(%rip)        # 6030f8 <_GLOBAL_OFFSET_TABLE_+0x28>
  400aae:	68 02 00 00 00       	pushq  $0x2
  400ab3:	e9 c0 ff ff ff       	jmpq   400a78 <_init+0x18>

0000000000400ab8 <puts@plt>:
  400ab8:	ff 25 42 26 20 00    	jmpq   *0x202642(%rip)        # 603100 <_GLOBAL_OFFSET_TABLE_+0x30>
  400abe:	68 03 00 00 00       	pushq  $0x3
  400ac3:	e9 b0 ff ff ff       	jmpq   400a78 <_init+0x18>

0000000000400ac8 <__isoc99_sscanf@plt>:
  400ac8:	ff 25 3a 26 20 00    	jmpq   *0x20263a(%rip)        # 603108 <_GLOBAL_OFFSET_TABLE_+0x38>
  400ace:	68 04 00 00 00       	pushq  $0x4
  400ad3:	e9 a0 ff ff ff       	jmpq   400a78 <_init+0x18>

0000000000400ad8 <exit@plt>:
  400ad8:	ff 25 32 26 20 00    	jmpq   *0x202632(%rip)        # 603110 <_GLOBAL_OFFSET_TABLE_+0x40>
  400ade:	68 05 00 00 00       	pushq  $0x5
  400ae3:	e9 90 ff ff ff       	jmpq   400a78 <_init+0x18>

0000000000400ae8 <strcasecmp@plt>:
  400ae8:	ff 25 2a 26 20 00    	jmpq   *0x20262a(%rip)        # 603118 <_GLOBAL_OFFSET_TABLE_+0x48>
  400aee:	68 06 00 00 00       	pushq  $0x6
  400af3:	e9 80 ff ff ff       	jmpq   400a78 <_init+0x18>

0000000000400af8 <read@plt>:
  400af8:	ff 25 22 26 20 00    	jmpq   *0x202622(%rip)        # 603120 <_GLOBAL_OFFSET_TABLE_+0x50>
  400afe:	68 07 00 00 00       	pushq  $0x7
  400b03:	e9 70 ff ff ff       	jmpq   400a78 <_init+0x18>

0000000000400b08 <fopen@plt>:
  400b08:	ff 25 1a 26 20 00    	jmpq   *0x20261a(%rip)        # 603128 <_GLOBAL_OFFSET_TABLE_+0x58>
  400b0e:	68 08 00 00 00       	pushq  $0x8
  400b13:	e9 60 ff ff ff       	jmpq   400a78 <_init+0x18>

0000000000400b18 <__libc_start_main@plt>:
  400b18:	ff 25 12 26 20 00    	jmpq   *0x202612(%rip)        # 603130 <_GLOBAL_OFFSET_TABLE_+0x60>
  400b1e:	68 09 00 00 00       	pushq  $0x9
  400b23:	e9 50 ff ff ff       	jmpq   400a78 <_init+0x18>

0000000000400b28 <fgets@plt>:
  400b28:	ff 25 0a 26 20 00    	jmpq   *0x20260a(%rip)        # 603138 <_GLOBAL_OFFSET_TABLE_+0x68>
  400b2e:	68 0a 00 00 00       	pushq  $0xa
  400b33:	e9 40 ff ff ff       	jmpq   400a78 <_init+0x18>

0000000000400b38 <bcopy@plt>:
  400b38:	ff 25 02 26 20 00    	jmpq   *0x202602(%rip)        # 603140 <_GLOBAL_OFFSET_TABLE_+0x70>
  400b3e:	68 0b 00 00 00       	pushq  $0xb
  400b43:	e9 30 ff ff ff       	jmpq   400a78 <_init+0x18>

0000000000400b48 <__ctype_b_loc@plt>:
  400b48:	ff 25 fa 25 20 00    	jmpq   *0x2025fa(%rip)        # 603148 <_GLOBAL_OFFSET_TABLE_+0x78>
  400b4e:	68 0c 00 00 00       	pushq  $0xc
  400b53:	e9 20 ff ff ff       	jmpq   400a78 <_init+0x18>

0000000000400b58 <sprintf@plt>:
  400b58:	ff 25 f2 25 20 00    	jmpq   *0x2025f2(%rip)        # 603150 <_GLOBAL_OFFSET_TABLE_+0x80>
  400b5e:	68 0d 00 00 00       	pushq  $0xd
  400b63:	e9 10 ff ff ff       	jmpq   400a78 <_init+0x18>

0000000000400b68 <sleep@plt>:
  400b68:	ff 25 ea 25 20 00    	jmpq   *0x2025ea(%rip)        # 603158 <_GLOBAL_OFFSET_TABLE_+0x88>
  400b6e:	68 0e 00 00 00       	pushq  $0xe
  400b73:	e9 00 ff ff ff       	jmpq   400a78 <_init+0x18>

0000000000400b78 <strtol@plt>:
  400b78:	ff 25 e2 25 20 00    	jmpq   *0x2025e2(%rip)        # 603160 <_GLOBAL_OFFSET_TABLE_+0x90>
  400b7e:	68 0f 00 00 00       	pushq  $0xf
  400b83:	e9 f0 fe ff ff       	jmpq   400a78 <_init+0x18>

0000000000400b88 <connect@plt>:
  400b88:	ff 25 da 25 20 00    	jmpq   *0x2025da(%rip)        # 603168 <_GLOBAL_OFFSET_TABLE_+0x98>
  400b8e:	68 10 00 00 00       	pushq  $0x10
  400b93:	e9 e0 fe ff ff       	jmpq   400a78 <_init+0x18>

0000000000400b98 <gethostname@plt>:
  400b98:	ff 25 d2 25 20 00    	jmpq   *0x2025d2(%rip)        # 603170 <_GLOBAL_OFFSET_TABLE_+0xa0>
  400b9e:	68 11 00 00 00       	pushq  $0x11
  400ba3:	e9 d0 fe ff ff       	jmpq   400a78 <_init+0x18>

0000000000400ba8 <memcpy@plt>:
  400ba8:	ff 25 ca 25 20 00    	jmpq   *0x2025ca(%rip)        # 603178 <_GLOBAL_OFFSET_TABLE_+0xa8>
  400bae:	68 12 00 00 00       	pushq  $0x12
  400bb3:	e9 c0 fe ff ff       	jmpq   400a78 <_init+0x18>

0000000000400bb8 <signal@plt>:
  400bb8:	ff 25 c2 25 20 00    	jmpq   *0x2025c2(%rip)        # 603180 <_GLOBAL_OFFSET_TABLE_+0xb0>
  400bbe:	68 13 00 00 00       	pushq  $0x13
  400bc3:	e9 b0 fe ff ff       	jmpq   400a78 <_init+0x18>

0000000000400bc8 <socket@plt>:
  400bc8:	ff 25 ba 25 20 00    	jmpq   *0x2025ba(%rip)        # 603188 <_GLOBAL_OFFSET_TABLE_+0xb8>
  400bce:	68 14 00 00 00       	pushq  $0x14
  400bd3:	e9 a0 fe ff ff       	jmpq   400a78 <_init+0x18>

0000000000400bd8 <getenv@plt>:
  400bd8:	ff 25 b2 25 20 00    	jmpq   *0x2025b2(%rip)        # 603190 <_GLOBAL_OFFSET_TABLE_+0xc0>
  400bde:	68 15 00 00 00       	pushq  $0x15
  400be3:	e9 90 fe ff ff       	jmpq   400a78 <_init+0x18>

0000000000400be8 <alarm@plt>:
  400be8:	ff 25 aa 25 20 00    	jmpq   *0x2025aa(%rip)        # 603198 <_GLOBAL_OFFSET_TABLE_+0xc8>
  400bee:	68 16 00 00 00       	pushq  $0x16
  400bf3:	e9 80 fe ff ff       	jmpq   400a78 <_init+0x18>

0000000000400bf8 <__errno_location@plt>:
  400bf8:	ff 25 a2 25 20 00    	jmpq   *0x2025a2(%rip)        # 6031a0 <_GLOBAL_OFFSET_TABLE_+0xd0>
  400bfe:	68 17 00 00 00       	pushq  $0x17
  400c03:	e9 70 fe ff ff       	jmpq   400a78 <_init+0x18>

0000000000400c08 <strcpy@plt>:
  400c08:	ff 25 9a 25 20 00    	jmpq   *0x20259a(%rip)        # 6031a8 <_GLOBAL_OFFSET_TABLE_+0xd8>
  400c0e:	68 18 00 00 00       	pushq  $0x18
  400c13:	e9 60 fe ff ff       	jmpq   400a78 <_init+0x18>

0000000000400c18 <fprintf@plt>:
  400c18:	ff 25 92 25 20 00    	jmpq   *0x202592(%rip)        # 6031b0 <_GLOBAL_OFFSET_TABLE_+0xe0>
  400c1e:	68 19 00 00 00       	pushq  $0x19
  400c23:	e9 50 fe ff ff       	jmpq   400a78 <_init+0x18>

0000000000400c28 <write@plt>:
  400c28:	ff 25 8a 25 20 00    	jmpq   *0x20258a(%rip)        # 6031b8 <_GLOBAL_OFFSET_TABLE_+0xe8>
  400c2e:	68 1a 00 00 00       	pushq  $0x1a
  400c33:	e9 40 fe ff ff       	jmpq   400a78 <_init+0x18>

0000000000400c38 <fflush@plt>:
  400c38:	ff 25 82 25 20 00    	jmpq   *0x202582(%rip)        # 6031c0 <_GLOBAL_OFFSET_TABLE_+0xf0>
  400c3e:	68 1b 00 00 00       	pushq  $0x1b
  400c43:	e9 30 fe ff ff       	jmpq   400a78 <_init+0x18>

Disassembly of section .text:

0000000000400c50 <_start>:
  400c50:	31 ed                	xor    %ebp,%ebp
  400c52:	49 89 d1             	mov    %rdx,%r9
  400c55:	5e                   	pop    %rsi
  400c56:	48 89 e2             	mov    %rsp,%rdx
  400c59:	48 83 e4 f0          	and    $0xfffffffffffffff0,%rsp
  400c5d:	50                   	push   %rax
  400c5e:	54                   	push   %rsp
  400c5f:	49 c7 c0 30 21 40 00 	mov    $0x402130,%r8
  400c66:	48 c7 c1 40 21 40 00 	mov    $0x402140,%rcx
  400c6d:	48 c7 c7 34 0d 40 00 	mov    $0x400d34,%rdi
  400c74:	e8 9f fe ff ff       	callq  400b18 <__libc_start_main@plt>
  400c79:	f4                   	hlt    
  400c7a:	90                   	nop
  400c7b:	90                   	nop

0000000000400c7c <call_gmon_start>:
  400c7c:	48 83 ec 08          	sub    $0x8,%rsp
  400c80:	48 8b 05 41 24 20 00 	mov    0x202441(%rip),%rax        # 6030c8 <_DYNAMIC+0x190>
  400c87:	48 85 c0             	test   %rax,%rax
  400c8a:	74 02                	je     400c8e <call_gmon_start+0x12>
  400c8c:	ff d0                	callq  *%rax
  400c8e:	48 83 c4 08          	add    $0x8,%rsp
  400c92:	c3                   	retq   
  400c93:	90                   	nop
  400c94:	90                   	nop
  400c95:	90                   	nop
  400c96:	90                   	nop
  400c97:	90                   	nop
  400c98:	90                   	nop
  400c99:	90                   	nop
  400c9a:	90                   	nop
  400c9b:	90                   	nop
  400c9c:	90                   	nop
  400c9d:	90                   	nop
  400c9e:	90                   	nop
  400c9f:	90                   	nop

0000000000400ca0 <__do_global_dtors_aux>:
  400ca0:	55                   	push   %rbp
  400ca1:	48 89 e5             	mov    %rsp,%rbp
  400ca4:	53                   	push   %rbx
  400ca5:	48 83 ec 08          	sub    $0x8,%rsp
  400ca9:	80 3d e8 2b 20 00 00 	cmpb   $0x0,0x202be8(%rip)        # 603898 <completed.6352>
  400cb0:	75 4b                	jne    400cfd <__do_global_dtors_aux+0x5d>
  400cb2:	bb 28 2f 60 00       	mov    $0x602f28,%ebx
  400cb7:	48 8b 05 e2 2b 20 00 	mov    0x202be2(%rip),%rax        # 6038a0 <dtor_idx.6354>
  400cbe:	48 81 eb 20 2f 60 00 	sub    $0x602f20,%rbx
  400cc5:	48 c1 fb 03          	sar    $0x3,%rbx
  400cc9:	48 83 eb 01          	sub    $0x1,%rbx
  400ccd:	48 39 d8             	cmp    %rbx,%rax
  400cd0:	73 24                	jae    400cf6 <__do_global_dtors_aux+0x56>
  400cd2:	66 0f 1f 44 00 00    	nopw   0x0(%rax,%rax,1)
  400cd8:	48 83 c0 01          	add    $0x1,%rax
  400cdc:	48 89 05 bd 2b 20 00 	mov    %rax,0x202bbd(%rip)        # 6038a0 <dtor_idx.6354>
  400ce3:	ff 14 c5 20 2f 60 00 	callq  *0x602f20(,%rax,8)
  400cea:	48 8b 05 af 2b 20 00 	mov    0x202baf(%rip),%rax        # 6038a0 <dtor_idx.6354>
  400cf1:	48 39 d8             	cmp    %rbx,%rax
  400cf4:	72 e2                	jb     400cd8 <__do_global_dtors_aux+0x38>
  400cf6:	c6 05 9b 2b 20 00 01 	movb   $0x1,0x202b9b(%rip)        # 603898 <completed.6352>
  400cfd:	48 83 c4 08          	add    $0x8,%rsp
  400d01:	5b                   	pop    %rbx
  400d02:	c9                   	leaveq 
  400d03:	c3                   	retq   
  400d04:	66 66 66 2e 0f 1f 84 	data32 data32 nopw %cs:0x0(%rax,%rax,1)
  400d0b:	00 00 00 00 00 

0000000000400d10 <frame_dummy>:
  400d10:	48 83 3d 18 22 20 00 	cmpq   $0x0,0x202218(%rip)        # 602f30 <__JCR_END__>
  400d17:	00 
  400d18:	55                   	push   %rbp
  400d19:	48 89 e5             	mov    %rsp,%rbp
  400d1c:	74 12                	je     400d30 <frame_dummy+0x20>
  400d1e:	b8 00 00 00 00       	mov    $0x0,%eax
  400d23:	48 85 c0             	test   %rax,%rax
  400d26:	74 08                	je     400d30 <frame_dummy+0x20>
  400d28:	bf 30 2f 60 00       	mov    $0x602f30,%edi
  400d2d:	c9                   	leaveq 
  400d2e:	ff e0                	jmpq   *%rax
  400d30:	c9                   	leaveq 
  400d31:	c3                   	retq   
  400d32:	90                   	nop
  400d33:	90                   	nop

0000000000400d34 <main>:
  400d34:	55                   	push   %rbp
  400d35:	53                   	push   %rbx
  400d36:	48 83 ec 08          	sub    $0x8,%rsp
  400d3a:	48 89 f3             	mov    %rsi,%rbx
  400d3d:	83 ff 01             	cmp    $0x1,%edi
  400d40:	75 10                	jne    400d52 <main+0x1e>
  400d42:	48 8b 05 37 2b 20 00 	mov    0x202b37(%rip),%rax        # 603880 <__bss_start>
  400d49:	48 89 05 60 2b 20 00 	mov    %rax,0x202b60(%rip)        # 6038b0 <infile>
  400d50:	eb 5a                	jmp    400dac <main+0x78>
  400d52:	83 ff 02             	cmp    $0x2,%edi
  400d55:	75 39                	jne    400d90 <main+0x5c>
  400d57:	48 8d 6e 08          	lea    0x8(%rsi),%rbp
  400d5b:	be 30 22 40 00       	mov    $0x402230,%esi
  400d60:	48 8b 7d 00          	mov    0x0(%rbp),%rdi
  400d64:	e8 9f fd ff ff       	callq  400b08 <fopen@plt>
  400d69:	48 89 05 40 2b 20 00 	mov    %rax,0x202b40(%rip)        # 6038b0 <infile>
  400d70:	48 85 c0             	test   %rax,%rax
  400d73:	75 37                	jne    400dac <main+0x78>
  400d75:	48 8b 55 00          	mov    0x0(%rbp),%rdx
  400d79:	48 8b 33             	mov    (%rbx),%rsi
  400d7c:	bf 32 22 40 00       	mov    $0x402232,%edi
  400d81:	e8 02 fd ff ff       	callq  400a88 <printf@plt>
  400d86:	bf 08 00 00 00       	mov    $0x8,%edi
  400d8b:	e8 48 fd ff ff       	callq  400ad8 <exit@plt>
  400d90:	48 8b 36             	mov    (%rsi),%rsi
  400d93:	bf 4f 22 40 00       	mov    $0x40224f,%edi
  400d98:	b8 00 00 00 00       	mov    $0x0,%eax
  400d9d:	e8 e6 fc ff ff       	callq  400a88 <printf@plt>
  400da2:	bf 08 00 00 00       	mov    $0x8,%edi
  400da7:	e8 2c fd ff ff       	callq  400ad8 <exit@plt>
  400dac:	e8 6f 08 00 00       	callq  401620 <initialize_bomb>
  400db1:	bf b8 22 40 00       	mov    $0x4022b8,%edi
  400db6:	e8 fd fc ff ff       	callq  400ab8 <puts@plt>
  400dbb:	bf f8 22 40 00       	mov    $0x4022f8,%edi
  400dc0:	e8 f3 fc ff ff       	callq  400ab8 <puts@plt>
  400dc5:	e8 1b 07 00 00       	callq  4014e5 <read_line>
  400dca:	48 89 c7             	mov    %rax,%rdi
  400dcd:	e8 42 03 00 00       	callq  401114 <phase_1>
  400dd2:	e8 8f 05 00 00       	callq  401366 <phase_defused>
  400dd7:	bf 28 23 40 00       	mov    $0x402328,%edi
  400ddc:	e8 d7 fc ff ff       	callq  400ab8 <puts@plt>
  400de1:	e8 ff 06 00 00       	callq  4014e5 <read_line>
  400de6:	48 89 c7             	mov    %rax,%rdi
  400de9:	e8 84 02 00 00       	callq  401072 <phase_2>
  400dee:	e8 73 05 00 00       	callq  401366 <phase_defused>
  400df3:	bf 69 22 40 00       	mov    $0x402269,%edi
  400df8:	e8 bb fc ff ff       	callq  400ab8 <puts@plt>
  400dfd:	e8 e3 06 00 00       	callq  4014e5 <read_line>
  400e02:	48 89 c7             	mov    %rax,%rdi
  400e05:	e8 7a 03 00 00       	callq  401184 <phase_3>
  400e0a:	e8 57 05 00 00       	callq  401366 <phase_defused>
  400e0f:	bf 87 22 40 00       	mov    $0x402287,%edi
  400e14:	e8 9f fc ff ff       	callq  400ab8 <puts@plt>
  400e19:	e8 c7 06 00 00       	callq  4014e5 <read_line>
  400e1e:	48 89 c7             	mov    %rax,%rdi
  400e21:	e8 0b 03 00 00       	callq  401131 <phase_4>
  400e26:	e8 3b 05 00 00       	callq  401366 <phase_defused>
  400e2b:	bf 58 23 40 00       	mov    $0x402358,%edi
  400e30:	e8 83 fc ff ff       	callq  400ab8 <puts@plt>
  400e35:	e8 ab 06 00 00       	callq  4014e5 <read_line>
  400e3a:	48 89 c7             	mov    %rax,%rdi
  400e3d:	e8 74 02 00 00       	callq  4010b6 <phase_5>
  400e42:	e8 1f 05 00 00       	callq  401366 <phase_defused>
  400e47:	bf 96 22 40 00       	mov    $0x402296,%edi
  400e4c:	e8 67 fc ff ff       	callq  400ab8 <puts@plt>
  400e51:	e8 8f 06 00 00       	callq  4014e5 <read_line>
  400e56:	48 89 c7             	mov    %rax,%rdi
  400e59:	e8 f5 00 00 00       	callq  400f53 <phase_6>
  400e5e:	e8 03 05 00 00       	callq  401366 <phase_defused>
  400e63:	b8 00 00 00 00       	mov    $0x0,%eax
  400e68:	48 83 c4 08          	add    $0x8,%rsp
  400e6c:	5b                   	pop    %rbx
  400e6d:	5d                   	pop    %rbp
  400e6e:	c3                   	retq   
  400e6f:	90                   	nop

0000000000400e70 <func4>:
  400e70:	48 89 5c 24 e8       	mov    %rbx,-0x18(%rsp)
  400e75:	48 89 6c 24 f0       	mov    %rbp,-0x10(%rsp)
  400e7a:	4c 89 64 24 f8       	mov    %r12,-0x8(%rsp)
  400e7f:	48 83 ec 18          	sub    $0x18,%rsp
  400e83:	89 fb                	mov    %edi,%ebx
  400e85:	89 f5                	mov    %esi,%ebp
  400e87:	85 ff                	test   %edi,%edi
  400e89:	7f 07                	jg     400e92 <func4+0x22>
  400e8b:	bd 00 00 00 00       	mov    $0x0,%ebp
  400e90:	eb 20                	jmp    400eb2 <func4+0x42>
  400e92:	83 ff 01             	cmp    $0x1,%edi
  400e95:	74 1b                	je     400eb2 <func4+0x42>
  400e97:	8d 7b ff             	lea    -0x1(%rbx),%edi
  400e9a:	e8 d1 ff ff ff       	callq  400e70 <func4>
  400e9f:	41 89 c4             	mov    %eax,%r12d
  400ea2:	8d 7b fe             	lea    -0x2(%rbx),%edi
  400ea5:	89 ee                	mov    %ebp,%esi
  400ea7:	e8 c4 ff ff ff       	callq  400e70 <func4>
  400eac:	41 01 c4             	add    %eax,%r12d
  400eaf:	44 01 e5             	add    %r12d,%ebp
  400eb2:	89 e8                	mov    %ebp,%eax
  400eb4:	48 8b 1c 24          	mov    (%rsp),%rbx
  400eb8:	48 8b 6c 24 08       	mov    0x8(%rsp),%rbp
  400ebd:	4c 8b 64 24 10       	mov    0x10(%rsp),%r12
  400ec2:	48 83 c4 18          	add    $0x18,%rsp
  400ec6:	c3                   	retq   

0000000000400ec7 <fun7>:
  400ec7:	48 83 ec 08          	sub    $0x8,%rsp
  400ecb:	b8 ff ff ff ff       	mov    $0xffffffff,%eax
  400ed0:	48 85 ff             	test   %rdi,%rdi
  400ed3:	74 29                	je     400efe <fun7+0x37>
  400ed5:	8b 17                	mov    (%rdi),%edx
  400ed7:	39 f2                	cmp    %esi,%edx
  400ed9:	7e 0d                	jle    400ee8 <fun7+0x21>
  400edb:	48 8b 7f 08          	mov    0x8(%rdi),%rdi
  400edf:	e8 e3 ff ff ff       	callq  400ec7 <fun7>
  400ee4:	01 c0                	add    %eax,%eax
  400ee6:	eb 16                	jmp    400efe <fun7+0x37>
  400ee8:	b8 00 00 00 00       	mov    $0x0,%eax
  400eed:	39 f2                	cmp    %esi,%edx
  400eef:	74 0d                	je     400efe <fun7+0x37>
  400ef1:	48 8b 7f 10          	mov    0x10(%rdi),%rdi
  400ef5:	e8 cd ff ff ff       	callq  400ec7 <fun7>
  400efa:	8d 44 00 01          	lea    0x1(%rax,%rax,1),%eax
  400efe:	48 83 c4 08          	add    $0x8,%rsp
  400f02:	c3                   	retq   

0000000000400f03 <secret_phase>:
  400f03:	53                   	push   %rbx
  400f04:	e8 dc 05 00 00       	callq  4014e5 <read_line>
  400f09:	ba 0a 00 00 00       	mov    $0xa,%edx
  400f0e:	be 00 00 00 00       	mov    $0x0,%esi
  400f13:	48 89 c7             	mov    %rax,%rdi
  400f16:	e8 5d fc ff ff       	callq  400b78 <strtol@plt>
  400f1b:	89 c3                	mov    %eax,%ebx
  400f1d:	8d 43 ff             	lea    -0x1(%rbx),%eax
  400f20:	3d e8 03 00 00       	cmp    $0x3e8,%eax
  400f25:	76 05                	jbe    400f2c <secret_phase+0x29>
  400f27:	e8 c3 04 00 00       	callq  4013ef <explode_bomb>
  400f2c:	89 de                	mov    %ebx,%esi
  400f2e:	bf 50 34 60 00       	mov    $0x603450,%edi
  400f33:	e8 8f ff ff ff       	callq  400ec7 <fun7>
  400f38:	83 f8 02             	cmp    $0x2,%eax
  400f3b:	74 05                	je     400f42 <secret_phase+0x3f>
  400f3d:	e8 ad 04 00 00       	callq  4013ef <explode_bomb>
  400f42:	bf 80 23 40 00       	mov    $0x402380,%edi
  400f47:	e8 6c fb ff ff       	callq  400ab8 <puts@plt>
  400f4c:	e8 15 04 00 00       	callq  401366 <phase_defused>
  400f51:	5b                   	pop    %rbx
  400f52:	c3                   	retq   

0000000000400f53 <phase_6>:
  400f53:	41 55                	push   %r13
  400f55:	41 54                	push   %r12
  400f57:	55                   	push   %rbp
  400f58:	53                   	push   %rbx
  400f59:	48 83 ec 58          	sub    $0x58,%rsp
  400f5d:	4c 8d 64 24 30       	lea    0x30(%rsp),%r12
  400f62:	4c 89 e6             	mov    %r12,%rsi
  400f65:	e8 bb 04 00 00       	callq  401425 <read_six_numbers>
  400f6a:	4c 89 e5             	mov    %r12,%rbp
  400f6d:	41 bd 00 00 00 00    	mov    $0x0,%r13d
  400f73:	8b 45 00             	mov    0x0(%rbp),%eax
  400f76:	83 e8 01             	sub    $0x1,%eax
  400f79:	83 f8 05             	cmp    $0x5,%eax
  400f7c:	76 05                	jbe    400f83 <phase_6+0x30>
  400f7e:	e8 6c 04 00 00       	callq  4013ef <explode_bomb>
  400f83:	41 83 c5 01          	add    $0x1,%r13d
  400f87:	41 83 fd 06          	cmp    $0x6,%r13d
  400f8b:	74 22                	je     400faf <phase_6+0x5c>
  400f8d:	44 89 eb             	mov    %r13d,%ebx
  400f90:	48 63 c3             	movslq %ebx,%rax
  400f93:	8b 55 00             	mov    0x0(%rbp),%edx
  400f96:	3b 54 84 30          	cmp    0x30(%rsp,%rax,4),%edx
  400f9a:	75 05                	jne    400fa1 <phase_6+0x4e>
  400f9c:	e8 4e 04 00 00       	callq  4013ef <explode_bomb>
  400fa1:	83 c3 01             	add    $0x1,%ebx
  400fa4:	83 fb 05             	cmp    $0x5,%ebx
  400fa7:	7e e7                	jle    400f90 <phase_6+0x3d>
  400fa9:	48 83 c5 04          	add    $0x4,%rbp
  400fad:	eb c4                	jmp    400f73 <phase_6+0x20>
  400faf:	48 8d 4c 24 48       	lea    0x48(%rsp),%rcx
  400fb4:	ba 07 00 00 00       	mov    $0x7,%edx
  400fb9:	89 d0                	mov    %edx,%eax
  400fbb:	41 2b 04 24          	sub    (%r12),%eax
  400fbf:	41 89 04 24          	mov    %eax,(%r12)
  400fc3:	49 83 c4 04          	add    $0x4,%r12
  400fc7:	49 39 cc             	cmp    %rcx,%r12
  400fca:	75 ed                	jne    400fb9 <phase_6+0x66>
  400fcc:	bb 00 00 00 00       	mov    $0x0,%ebx
  400fd1:	4c 8d 44 24 30       	lea    0x30(%rsp),%r8
  400fd6:	bd 01 00 00 00       	mov    $0x1,%ebp
  400fdb:	be 80 32 60 00       	mov    $0x603280,%esi
  400fe0:	48 89 e7             	mov    %rsp,%rdi
  400fe3:	eb 19                	jmp    400ffe <phase_6+0xab>
  400fe5:	48 8b 52 08          	mov    0x8(%rdx),%rdx
  400fe9:	83 c0 01             	add    $0x1,%eax
  400fec:	39 c8                	cmp    %ecx,%eax
  400fee:	75 f5                	jne    400fe5 <phase_6+0x92>
  400ff0:	48 89 14 5f          	mov    %rdx,(%rdi,%rbx,2)
  400ff4:	48 83 c3 04          	add    $0x4,%rbx
  400ff8:	48 83 fb 18          	cmp    $0x18,%rbx
  400ffc:	74 10                	je     40100e <phase_6+0xbb>
  400ffe:	41 8b 0c 18          	mov    (%r8,%rbx,1),%ecx
  401002:	89 e8                	mov    %ebp,%eax
  401004:	48 89 f2             	mov    %rsi,%rdx
  401007:	83 f9 01             	cmp    $0x1,%ecx
  40100a:	7f d9                	jg     400fe5 <phase_6+0x92>
  40100c:	eb e2                	jmp    400ff0 <phase_6+0x9d>
  40100e:	48 8b 1c 24          	mov    (%rsp),%rbx
  401012:	48 8b 44 24 08       	mov    0x8(%rsp),%rax
  401017:	48 89 43 08          	mov    %rax,0x8(%rbx)
  40101b:	48 8b 54 24 10       	mov    0x10(%rsp),%rdx
  401020:	48 89 50 08          	mov    %rdx,0x8(%rax)
  401024:	48 8b 44 24 18       	mov    0x18(%rsp),%rax
  401029:	48 89 42 08          	mov    %rax,0x8(%rdx)
  40102d:	48 8b 54 24 20       	mov    0x20(%rsp),%rdx
  401032:	48 89 50 08          	mov    %rdx,0x8(%rax)
  401036:	48 8b 44 24 28       	mov    0x28(%rsp),%rax
  40103b:	48 89 42 08          	mov    %rax,0x8(%rdx)
  40103f:	48 c7 40 08 00 00 00 	movq   $0x0,0x8(%rax)
  401046:	00 
  401047:	bd 00 00 00 00       	mov    $0x0,%ebp
  40104c:	48 8b 43 08          	mov    0x8(%rbx),%rax
  401050:	8b 13                	mov    (%rbx),%edx
  401052:	3b 10                	cmp    (%rax),%edx
  401054:	7d 05                	jge    40105b <phase_6+0x108>
  401056:	e8 94 03 00 00       	callq  4013ef <explode_bomb>
  40105b:	48 8b 5b 08          	mov    0x8(%rbx),%rbx
  40105f:	83 c5 01             	add    $0x1,%ebp
  401062:	83 fd 05             	cmp    $0x5,%ebp
  401065:	75 e5                	jne    40104c <phase_6+0xf9>
  401067:	48 83 c4 58          	add    $0x58,%rsp
  40106b:	5b                   	pop    %rbx
  40106c:	5d                   	pop    %rbp
  40106d:	41 5c                	pop    %r12
  40106f:	41 5d                	pop    %r13
  401071:	c3                   	retq   

0000000000401072 <phase_2>:
  401072:	55                   	push   %rbp
  401073:	53                   	push   %rbx
  401074:	48 83 ec 28          	sub    $0x28,%rsp
  401078:	48 89 e6             	mov    %rsp,%rsi
  40107b:	e8 a5 03 00 00       	callq  401425 <read_six_numbers>
  401080:	83 3c 24 00          	cmpl   $0x0,(%rsp)
  401084:	79 05                	jns    40108b <phase_2+0x19>
  401086:	e8 64 03 00 00       	callq  4013ef <explode_bomb>
  40108b:	48 8d 5c 24 04       	lea    0x4(%rsp),%rbx
  401090:	bd 01 00 00 00       	mov    $0x1,%ebp
  401095:	89 e8                	mov    %ebp,%eax
  401097:	03 43 fc             	add    -0x4(%rbx),%eax
  40109a:	39 03                	cmp    %eax,(%rbx)
  40109c:	74 05                	je     4010a3 <phase_2+0x31>
  40109e:	e8 4c 03 00 00       	callq  4013ef <explode_bomb>
  4010a3:	83 c5 01             	add    $0x1,%ebp
  4010a6:	48 83 c3 04          	add    $0x4,%rbx
  4010aa:	83 fd 06             	cmp    $0x6,%ebp
  4010ad:	75 e6                	jne    401095 <phase_2+0x23>
  4010af:	48 83 c4 28          	add    $0x28,%rsp
  4010b3:	5b                   	pop    %rbx
  4010b4:	5d                   	pop    %rbp
  4010b5:	c3                   	retq   

00000000004010b6 <phase_5>:
  4010b6:	53                   	push   %rbx
  4010b7:	48 83 ec 10          	sub    $0x10,%rsp
  4010bb:	48 89 fb             	mov    %rdi,%rbx
  4010be:	e8 4d 01 00 00       	callq  401210 <string_length>
  4010c3:	83 f8 06             	cmp    $0x6,%eax
  4010c6:	74 05                	je     4010cd <phase_5+0x17>
  4010c8:	e8 22 03 00 00       	callq  4013ef <explode_bomb>
  4010cd:	48 89 e0             	mov    %rsp,%rax
  4010d0:	48 8d 73 06          	lea    0x6(%rbx),%rsi
  4010d4:	ba 20 24 40 00       	mov    $0x402420,%edx
  4010d9:	48 0f be 0b          	movsbq (%rbx),%rcx
  4010dd:	83 e1 0f             	and    $0xf,%ecx
  4010e0:	0f b6 0c 0a          	movzbl (%rdx,%rcx,1),%ecx
  4010e4:	88 08                	mov    %cl,(%rax)
  4010e6:	48 83 c3 01          	add    $0x1,%rbx
  4010ea:	48 83 c0 01          	add    $0x1,%rax
  4010ee:	48 39 f3             	cmp    %rsi,%rbx
  4010f1:	75 e6                	jne    4010d9 <phase_5+0x23>
  4010f3:	c6 44 24 06 00       	movb   $0x0,0x6(%rsp)
  4010f8:	48 89 e7             	mov    %rsp,%rdi
  4010fb:	be d5 23 40 00       	mov    $0x4023d5,%esi
  401100:	e8 27 01 00 00       	callq  40122c <strings_not_equal>
  401105:	85 c0                	test   %eax,%eax
  401107:	74 05                	je     40110e <phase_5+0x58>
  401109:	e8 e1 02 00 00       	callq  4013ef <explode_bomb>
  40110e:	48 83 c4 10          	add    $0x10,%rsp
  401112:	5b                   	pop    %rbx
  401113:	c3                   	retq   

0000000000401114 <phase_1>:
  401114:	48 83 ec 08          	sub    $0x8,%rsp
  401118:	be a8 23 40 00       	mov    $0x4023a8,%esi
  40111d:	e8 0a 01 00 00       	callq  40122c <strings_not_equal>
  401122:	85 c0                	test   %eax,%eax
  401124:	74 05                	je     40112b <phase_1+0x17>
  401126:	e8 c4 02 00 00       	callq  4013ef <explode_bomb>
  40112b:	48 83 c4 08          	add    $0x8,%rsp
  40112f:	90                   	nop
  401130:	c3                   	retq   

0000000000401131 <phase_4>:
  401131:	48 83 ec 18          	sub    $0x18,%rsp
  401135:	48 8d 4c 24 0c       	lea    0xc(%rsp),%rcx
  40113a:	48 8d 54 24 08       	lea    0x8(%rsp),%rdx
  40113f:	be 9a 24 40 00       	mov    $0x40249a,%esi
  401144:	b8 00 00 00 00       	mov    $0x0,%eax
  401149:	e8 7a f9 ff ff       	callq  400ac8 <__isoc99_sscanf@plt>
  40114e:	83 f8 02             	cmp    $0x2,%eax
  401151:	75 0e                	jne    401161 <phase_4+0x30>
  401153:	8b 44 24 0c          	mov    0xc(%rsp),%eax
  401157:	83 f8 01             	cmp    $0x1,%eax
  40115a:	7e 05                	jle    401161 <phase_4+0x30>
  40115c:	83 f8 04             	cmp    $0x4,%eax
  40115f:	7e 05                	jle    401166 <phase_4+0x35>
  401161:	e8 89 02 00 00       	callq  4013ef <explode_bomb>
  401166:	8b 74 24 0c          	mov    0xc(%rsp),%esi
  40116a:	bf 06 00 00 00       	mov    $0x6,%edi
  40116f:	e8 fc fc ff ff       	callq  400e70 <func4>
  401174:	3b 44 24 08          	cmp    0x8(%rsp),%eax
  401178:	74 05                	je     40117f <phase_4+0x4e>
  40117a:	e8 70 02 00 00       	callq  4013ef <explode_bomb>
  40117f:	48 83 c4 18          	add    $0x18,%rsp
  401183:	c3                   	retq   

0000000000401184 <phase_3>:
  401184:	48 83 ec 18          	sub    $0x18,%rsp
  401188:	48 8d 4c 24 08       	lea    0x8(%rsp),%rcx
  40118d:	48 8d 54 24 0c       	lea    0xc(%rsp),%rdx
  401192:	be 9a 24 40 00       	mov    $0x40249a,%esi
  401197:	b8 00 00 00 00       	mov    $0x0,%eax
  40119c:	e8 27 f9 ff ff       	callq  400ac8 <__isoc99_sscanf@plt>
  4011a1:	83 f8 01             	cmp    $0x1,%eax
  4011a4:	7f 05                	jg     4011ab <phase_3+0x27>
  4011a6:	e8 44 02 00 00       	callq  4013ef <explode_bomb>
  4011ab:	83 7c 24 0c 07       	cmpl   $0x7,0xc(%rsp)
  4011b0:	77 43                	ja     4011f5 <phase_3+0x71>
  4011b2:	8b 44 24 0c          	mov    0xc(%rsp),%eax
  4011b6:	ff 24 c5 e0 23 40 00 	jmpq   *0x4023e0(,%rax,8)
  4011bd:	b8 73 02 00 00       	mov    $0x273,%eax
  4011c2:	eb 3b                	jmp    4011ff <phase_3+0x7b>
  4011c4:	b8 af 03 00 00       	mov    $0x3af,%eax
  4011c9:	eb 34                	jmp    4011ff <phase_3+0x7b>
  4011cb:	b8 2c 02 00 00       	mov    $0x22c,%eax
  4011d0:	eb 2d                	jmp    4011ff <phase_3+0x7b>
  4011d2:	b8 e6 03 00 00       	mov    $0x3e6,%eax
  4011d7:	eb 26                	jmp    4011ff <phase_3+0x7b>
  4011d9:	b8 83 02 00 00       	mov    $0x283,%eax
  4011de:	eb 1f                	jmp    4011ff <phase_3+0x7b>
  4011e0:	b8 e3 03 00 00       	mov    $0x3e3,%eax
  4011e5:	eb 18                	jmp    4011ff <phase_3+0x7b>
  4011e7:	b8 9d 03 00 00       	mov    $0x39d,%eax
  4011ec:	eb 11                	jmp    4011ff <phase_3+0x7b>
  4011ee:	b8 32 03 00 00       	mov    $0x332,%eax
  4011f3:	eb 0a                	jmp    4011ff <phase_3+0x7b>
  4011f5:	e8 f5 01 00 00       	callq  4013ef <explode_bomb>
  4011fa:	b8 00 00 00 00       	mov    $0x0,%eax
  4011ff:	3b 44 24 08          	cmp    0x8(%rsp),%eax
  401203:	74 05                	je     40120a <phase_3+0x86>
  401205:	e8 e5 01 00 00       	callq  4013ef <explode_bomb>
  40120a:	48 83 c4 18          	add    $0x18,%rsp
  40120e:	c3                   	retq   
  40120f:	90                   	nop

0000000000401210 <string_length>:
  401210:	48 89 fa             	mov    %rdi,%rdx
  401213:	b8 00 00 00 00       	mov    $0x0,%eax
  401218:	80 3f 00             	cmpb   $0x0,(%rdi)
  40121b:	74 0d                	je     40122a <string_length+0x1a>
  40121d:	48 83 c2 01          	add    $0x1,%rdx
  401221:	89 d0                	mov    %edx,%eax
  401223:	29 f8                	sub    %edi,%eax
  401225:	80 3a 00             	cmpb   $0x0,(%rdx)
  401228:	75 f3                	jne    40121d <string_length+0xd>
  40122a:	f3 c3                	repz retq 

000000000040122c <strings_not_equal>:
  40122c:	41 54                	push   %r12
  40122e:	55                   	push   %rbp
  40122f:	53                   	push   %rbx
  401230:	48 89 fb             	mov    %rdi,%rbx
  401233:	48 89 f5             	mov    %rsi,%rbp
  401236:	e8 d5 ff ff ff       	callq  401210 <string_length>
  40123b:	41 89 c4             	mov    %eax,%r12d
  40123e:	48 89 ef             	mov    %rbp,%rdi
  401241:	e8 ca ff ff ff       	callq  401210 <string_length>
  401246:	41 39 c4             	cmp    %eax,%r12d
  401249:	75 26                	jne    401271 <strings_not_equal+0x45>
  40124b:	0f b6 13             	movzbl (%rbx),%edx
  40124e:	84 d2                	test   %dl,%dl
  401250:	74 26                	je     401278 <strings_not_equal+0x4c>
  401252:	48 89 e8             	mov    %rbp,%rax
  401255:	3a 55 00             	cmp    0x0(%rbp),%dl
  401258:	74 0a                	je     401264 <strings_not_equal+0x38>
  40125a:	eb 15                	jmp    401271 <strings_not_equal+0x45>
  40125c:	48 83 c0 01          	add    $0x1,%rax
  401260:	3a 10                	cmp    (%rax),%dl
  401262:	75 0d                	jne    401271 <strings_not_equal+0x45>
  401264:	48 83 c3 01          	add    $0x1,%rbx
  401268:	0f b6 13             	movzbl (%rbx),%edx
  40126b:	84 d2                	test   %dl,%dl
  40126d:	75 ed                	jne    40125c <strings_not_equal+0x30>
  40126f:	eb 07                	jmp    401278 <strings_not_equal+0x4c>
  401271:	b8 01 00 00 00       	mov    $0x1,%eax
  401276:	eb 05                	jmp    40127d <strings_not_equal+0x51>
  401278:	b8 00 00 00 00       	mov    $0x0,%eax
  40127d:	5b                   	pop    %rbx
  40127e:	5d                   	pop    %rbp
  40127f:	41 5c                	pop    %r12
  401281:	c3                   	retq   

0000000000401282 <initialize_bomb_solve>:
  401282:	f3 c3                	repz retq 

0000000000401284 <invalid_phase>:
  401284:	48 83 ec 08          	sub    $0x8,%rsp
  401288:	48 89 fe             	mov    %rdi,%rsi
  40128b:	bf 30 24 40 00       	mov    $0x402430,%edi
  401290:	b8 00 00 00 00       	mov    $0x0,%eax
  401295:	e8 ee f7 ff ff       	callq  400a88 <printf@plt>
  40129a:	bf 08 00 00 00       	mov    $0x8,%edi
  40129f:	e8 34 f8 ff ff       	callq  400ad8 <exit@plt>

00000000004012a4 <send_msg>:
  4012a4:	53                   	push   %rbx
  4012a5:	48 81 ec 00 40 00 00 	sub    $0x4000,%rsp
  4012ac:	89 fa                	mov    %edi,%edx
  4012ae:	44 8b 05 f3 25 20 00 	mov    0x2025f3(%rip),%r8d        # 6038a8 <num_input_strings>
  4012b5:	49 63 c0             	movslq %r8d,%rax
  4012b8:	4c 8d 4c 80 fb       	lea    -0x5(%rax,%rax,4),%r9
  4012bd:	49 c1 e1 04          	shl    $0x4,%r9
  4012c1:	49 81 c1 c0 38 60 00 	add    $0x6038c0,%r9
  4012c8:	4c 89 cf             	mov    %r9,%rdi
  4012cb:	b8 00 00 00 00       	mov    $0x0,%eax
  4012d0:	48 c7 c1 ff ff ff ff 	mov    $0xffffffffffffffff,%rcx
  4012d7:	f2 ae                	repnz scas %es:(%rdi),%al
  4012d9:	48 f7 d1             	not    %rcx
  4012dc:	48 83 c1 63          	add    $0x63,%rcx
  4012e0:	48 81 f9 00 20 00 00 	cmp    $0x2000,%rcx
  4012e7:	76 14                	jbe    4012fd <send_msg+0x59>
  4012e9:	bf 28 25 40 00       	mov    $0x402528,%edi
  4012ee:	e8 95 f7 ff ff       	callq  400a88 <printf@plt>
  4012f3:	bf 08 00 00 00       	mov    $0x8,%edi
  4012f8:	e8 db f7 ff ff       	callq  400ad8 <exit@plt>
  4012fd:	85 d2                	test   %edx,%edx
  4012ff:	b8 41 24 40 00       	mov    $0x402441,%eax
  401304:	b9 4a 24 40 00       	mov    $0x40244a,%ecx
  401309:	48 0f 44 c8          	cmove  %rax,%rcx
  40130d:	48 8d 9c 24 00 20 00 	lea    0x2000(%rsp),%rbx
  401314:	00 
  401315:	8b 15 d5 1e 20 00    	mov    0x201ed5(%rip),%edx        # 6031f0 <bomb_id>
  40131b:	be 52 24 40 00       	mov    $0x402452,%esi
  401320:	48 89 df             	mov    %rbx,%rdi
  401323:	b8 00 00 00 00       	mov    $0x0,%eax
  401328:	e8 2b f8 ff ff       	callq  400b58 <sprintf@plt>
  40132d:	49 89 e0             	mov    %rsp,%r8
  401330:	b9 00 00 00 00       	mov    $0x0,%ecx
  401335:	48 89 da             	mov    %rbx,%rdx
  401338:	be 10 32 60 00       	mov    $0x603210,%esi
  40133d:	bf 00 32 60 00       	mov    $0x603200,%edi
  401342:	e8 45 0d 00 00       	callq  40208c <driver_post>
  401347:	85 c0                	test   %eax,%eax
  401349:	79 12                	jns    40135d <send_msg+0xb9>
  40134b:	48 89 e7             	mov    %rsp,%rdi
  40134e:	e8 65 f7 ff ff       	callq  400ab8 <puts@plt>
  401353:	bf 00 00 00 00       	mov    $0x0,%edi
  401358:	e8 7b f7 ff ff       	callq  400ad8 <exit@plt>
  40135d:	48 81 c4 00 40 00 00 	add    $0x4000,%rsp
  401364:	5b                   	pop    %rbx
  401365:	c3                   	retq   

0000000000401366 <phase_defused>:
  401366:	48 83 ec 68          	sub    $0x68,%rsp
  40136a:	bf 01 00 00 00       	mov    $0x1,%edi
  40136f:	e8 30 ff ff ff       	callq  4012a4 <send_msg>
  401374:	83 3d 2d 25 20 00 06 	cmpl   $0x6,0x20252d(%rip)        # 6038a8 <num_input_strings>
  40137b:	75 6d                	jne    4013ea <phase_defused+0x84>
  40137d:	48 8d 4c 24 08       	lea    0x8(%rsp),%rcx
  401382:	48 8d 54 24 0c       	lea    0xc(%rsp),%rdx
  401387:	4c 8d 44 24 10       	lea    0x10(%rsp),%r8
  40138c:	be 5e 24 40 00       	mov    $0x40245e,%esi
  401391:	bf b0 39 60 00       	mov    $0x6039b0,%edi
  401396:	b8 00 00 00 00       	mov    $0x0,%eax
  40139b:	e8 28 f7 ff ff       	callq  400ac8 <__isoc99_sscanf@plt>
  4013a0:	83 f8 03             	cmp    $0x3,%eax
  4013a3:	75 31                	jne    4013d6 <phase_defused+0x70>
  4013a5:	48 8d 7c 24 10       	lea    0x10(%rsp),%rdi
  4013aa:	be 67 24 40 00       	mov    $0x402467,%esi
  4013af:	e8 78 fe ff ff       	callq  40122c <strings_not_equal>
  4013b4:	85 c0                	test   %eax,%eax
  4013b6:	75 1e                	jne    4013d6 <phase_defused+0x70>
  4013b8:	bf 50 25 40 00       	mov    $0x402550,%edi
  4013bd:	e8 f6 f6 ff ff       	callq  400ab8 <puts@plt>
  4013c2:	bf 78 25 40 00       	mov    $0x402578,%edi
  4013c7:	e8 ec f6 ff ff       	callq  400ab8 <puts@plt>
  4013cc:	b8 00 00 00 00       	mov    $0x0,%eax
  4013d1:	e8 2d fb ff ff       	callq  400f03 <secret_phase>
  4013d6:	bf b0 25 40 00       	mov    $0x4025b0,%edi
  4013db:	e8 d8 f6 ff ff       	callq  400ab8 <puts@plt>
  4013e0:	bf e0 25 40 00       	mov    $0x4025e0,%edi
  4013e5:	e8 ce f6 ff ff       	callq  400ab8 <puts@plt>
  4013ea:	48 83 c4 68          	add    $0x68,%rsp
  4013ee:	c3                   	retq   

00000000004013ef <explode_bomb>:
  4013ef:	48 83 ec 08          	sub    $0x8,%rsp
  4013f3:	bf 6e 24 40 00       	mov    $0x40246e,%edi
  4013f8:	e8 bb f6 ff ff       	callq  400ab8 <puts@plt>
  4013fd:	bf 77 24 40 00       	mov    $0x402477,%edi
  401402:	e8 b1 f6 ff ff       	callq  400ab8 <puts@plt>
  401407:	bf 00 00 00 00       	mov    $0x0,%edi
  40140c:	e8 93 fe ff ff       	callq  4012a4 <send_msg>
  401411:	bf 28 26 40 00       	mov    $0x402628,%edi
  401416:	e8 9d f6 ff ff       	callq  400ab8 <puts@plt>
  40141b:	bf 08 00 00 00       	mov    $0x8,%edi
  401420:	e8 b3 f6 ff ff       	callq  400ad8 <exit@plt>

0000000000401425 <read_six_numbers>:
  401425:	48 83 ec 18          	sub    $0x18,%rsp
  401429:	48 89 f2             	mov    %rsi,%rdx
  40142c:	48 8d 4e 04          	lea    0x4(%rsi),%rcx
  401430:	48 8d 46 14          	lea    0x14(%rsi),%rax
  401434:	48 89 44 24 08       	mov    %rax,0x8(%rsp)
  401439:	48 8d 46 10          	lea    0x10(%rsi),%rax
  40143d:	48 89 04 24          	mov    %rax,(%rsp)
  401441:	4c 8d 4e 0c          	lea    0xc(%rsi),%r9
  401445:	4c 8d 46 08          	lea    0x8(%rsi),%r8
  401449:	be 8e 24 40 00       	mov    $0x40248e,%esi
  40144e:	b8 00 00 00 00       	mov    $0x0,%eax
  401453:	e8 70 f6 ff ff       	callq  400ac8 <__isoc99_sscanf@plt>
  401458:	83 f8 05             	cmp    $0x5,%eax
  40145b:	7f 05                	jg     401462 <read_six_numbers+0x3d>
  40145d:	e8 8d ff ff ff       	callq  4013ef <explode_bomb>
  401462:	48 83 c4 18          	add    $0x18,%rsp
  401466:	c3                   	retq   

0000000000401467 <blank_line>:
  401467:	55                   	push   %rbp
  401468:	53                   	push   %rbx
  401469:	48 83 ec 08          	sub    $0x8,%rsp
  40146d:	48 89 fd             	mov    %rdi,%rbp
  401470:	eb 1e                	jmp    401490 <blank_line+0x29>
  401472:	e8 d1 f6 ff ff       	callq  400b48 <__ctype_b_loc@plt>
  401477:	48 0f be db          	movsbq %bl,%rbx
  40147b:	48 8b 00             	mov    (%rax),%rax
  40147e:	f6 44 58 01 20       	testb  $0x20,0x1(%rax,%rbx,2)
  401483:	75 07                	jne    40148c <blank_line+0x25>
  401485:	b8 00 00 00 00       	mov    $0x0,%eax
  40148a:	eb 11                	jmp    40149d <blank_line+0x36>
  40148c:	48 83 c5 01          	add    $0x1,%rbp
  401490:	0f b6 5d 00          	movzbl 0x0(%rbp),%ebx
  401494:	84 db                	test   %bl,%bl
  401496:	75 da                	jne    401472 <blank_line+0xb>
  401498:	b8 01 00 00 00       	mov    $0x1,%eax
  40149d:	48 83 c4 08          	add    $0x8,%rsp
  4014a1:	5b                   	pop    %rbx
  4014a2:	5d                   	pop    %rbp
  4014a3:	c3                   	retq   

00000000004014a4 <skip>:
  4014a4:	53                   	push   %rbx
  4014a5:	48 63 05 fc 23 20 00 	movslq 0x2023fc(%rip),%rax        # 6038a8 <num_input_strings>
  4014ac:	48 8d 3c 80          	lea    (%rax,%rax,4),%rdi
  4014b0:	48 c1 e7 04          	shl    $0x4,%rdi
  4014b4:	48 81 c7 c0 38 60 00 	add    $0x6038c0,%rdi
  4014bb:	48 8b 15 ee 23 20 00 	mov    0x2023ee(%rip),%rdx        # 6038b0 <infile>
  4014c2:	be 50 00 00 00       	mov    $0x50,%esi
  4014c7:	e8 5c f6 ff ff       	callq  400b28 <fgets@plt>
  4014cc:	48 89 c3             	mov    %rax,%rbx
  4014cf:	48 85 c0             	test   %rax,%rax
  4014d2:	74 0c                	je     4014e0 <skip+0x3c>
  4014d4:	48 89 c7             	mov    %rax,%rdi
  4014d7:	e8 8b ff ff ff       	callq  401467 <blank_line>
  4014dc:	85 c0                	test   %eax,%eax
  4014de:	75 c5                	jne    4014a5 <skip+0x1>
  4014e0:	48 89 d8             	mov    %rbx,%rax
  4014e3:	5b                   	pop    %rbx
  4014e4:	c3                   	retq   

00000000004014e5 <read_line>:
  4014e5:	55                   	push   %rbp
  4014e6:	53                   	push   %rbx
  4014e7:	48 83 ec 08          	sub    $0x8,%rsp
  4014eb:	b8 00 00 00 00       	mov    $0x0,%eax
  4014f0:	e8 af ff ff ff       	callq  4014a4 <skip>
  4014f5:	48 85 c0             	test   %rax,%rax
  4014f8:	75 6e                	jne    401568 <read_line+0x83>
  4014fa:	48 8b 05 7f 23 20 00 	mov    0x20237f(%rip),%rax        # 603880 <__bss_start>
  401501:	48 39 05 a8 23 20 00 	cmp    %rax,0x2023a8(%rip)        # 6038b0 <infile>
  401508:	75 14                	jne    40151e <read_line+0x39>
  40150a:	bf a0 24 40 00       	mov    $0x4024a0,%edi
  40150f:	e8 a4 f5 ff ff       	callq  400ab8 <puts@plt>
  401514:	bf 08 00 00 00       	mov    $0x8,%edi
  401519:	e8 ba f5 ff ff       	callq  400ad8 <exit@plt>
  40151e:	bf be 24 40 00       	mov    $0x4024be,%edi
  401523:	e8 b0 f6 ff ff       	callq  400bd8 <getenv@plt>
  401528:	48 85 c0             	test   %rax,%rax
  40152b:	74 0a                	je     401537 <read_line+0x52>
  40152d:	bf 00 00 00 00       	mov    $0x0,%edi
  401532:	e8 a1 f5 ff ff       	callq  400ad8 <exit@plt>
  401537:	48 8b 05 42 23 20 00 	mov    0x202342(%rip),%rax        # 603880 <__bss_start>
  40153e:	48 89 05 6b 23 20 00 	mov    %rax,0x20236b(%rip)        # 6038b0 <infile>
  401545:	b8 00 00 00 00       	mov    $0x0,%eax
  40154a:	e8 55 ff ff ff       	callq  4014a4 <skip>
  40154f:	48 85 c0             	test   %rax,%rax
  401552:	75 14                	jne    401568 <read_line+0x83>
  401554:	bf a0 24 40 00       	mov    $0x4024a0,%edi
  401559:	e8 5a f5 ff ff       	callq  400ab8 <puts@plt>
  40155e:	bf 00 00 00 00       	mov    $0x0,%edi
  401563:	e8 70 f5 ff ff       	callq  400ad8 <exit@plt>
  401568:	bd c0 38 60 00       	mov    $0x6038c0,%ebp
  40156d:	48 63 05 34 23 20 00 	movslq 0x202334(%rip),%rax        # 6038a8 <num_input_strings>
  401574:	48 8d 04 80          	lea    (%rax,%rax,4),%rax
  401578:	48 c1 e0 04          	shl    $0x4,%rax
  40157c:	48 8d b8 c0 38 60 00 	lea    0x6038c0(%rax),%rdi
  401583:	b8 00 00 00 00       	mov    $0x0,%eax
  401588:	48 c7 c1 ff ff ff ff 	mov    $0xffffffffffffffff,%rcx
  40158f:	f2 ae                	repnz scas %es:(%rdi),%al
  401591:	48 f7 d1             	not    %rcx
  401594:	8d 59 ff             	lea    -0x1(%rcx),%ebx
  401597:	83 fb 4e             	cmp    $0x4e,%ebx
  40159a:	7e 48                	jle    4015e4 <read_line+0xff>
  40159c:	bf c9 24 40 00       	mov    $0x4024c9,%edi
  4015a1:	e8 12 f5 ff ff       	callq  400ab8 <puts@plt>
  4015a6:	8b 05 fc 22 20 00    	mov    0x2022fc(%rip),%eax        # 6038a8 <num_input_strings>
  4015ac:	8d 50 01             	lea    0x1(%rax),%edx
  4015af:	89 15 f3 22 20 00    	mov    %edx,0x2022f3(%rip)        # 6038a8 <num_input_strings>
  4015b5:	48 98                	cltq   
  4015b7:	48 8d 04 80          	lea    (%rax,%rax,4),%rax
  4015bb:	48 c1 e0 04          	shl    $0x4,%rax
  4015bf:	48 8d 44 05 00       	lea    0x0(%rbp,%rax,1),%rax
  4015c4:	c7 00 2a 2a 2a 74    	movl   $0x742a2a2a,(%rax)
  4015ca:	c7 40 04 72 75 6e 63 	movl   $0x636e7572,0x4(%rax)
  4015d1:	c7 40 08 61 74 65 64 	movl   $0x64657461,0x8(%rax)
  4015d8:	c7 40 0c 2a 2a 2a 00 	movl   $0x2a2a2a,0xc(%rax)
  4015df:	e8 0b fe ff ff       	callq  4013ef <explode_bomb>
  4015e4:	8b 0d be 22 20 00    	mov    0x2022be(%rip),%ecx        # 6038a8 <num_input_strings>
  4015ea:	83 eb 01             	sub    $0x1,%ebx
  4015ed:	48 63 db             	movslq %ebx,%rbx
  4015f0:	48 63 c1             	movslq %ecx,%rax
  4015f3:	48 8d 14 85 00 00 00 	lea    0x0(,%rax,4),%rdx
  4015fa:	00 
  4015fb:	48 8d 34 02          	lea    (%rdx,%rax,1),%rsi
  4015ff:	48 c1 e6 04          	shl    $0x4,%rsi
  401603:	c6 84 33 c0 38 60 00 	movb   $0x0,0x6038c0(%rbx,%rsi,1)
  40160a:	00 
  40160b:	83 c1 01             	add    $0x1,%ecx
  40160e:	89 0d 94 22 20 00    	mov    %ecx,0x202294(%rip)        # 6038a8 <num_input_strings>
  401614:	48 8d 44 35 00       	lea    0x0(%rbp,%rsi,1),%rax
  401619:	48 83 c4 08          	add    $0x8,%rsp
  40161d:	5b                   	pop    %rbx
  40161e:	5d                   	pop    %rbp
  40161f:	c3                   	retq   

0000000000401620 <initialize_bomb>:
  401620:	55                   	push   %rbp
  401621:	53                   	push   %rbx
  401622:	48 81 ec 48 20 00 00 	sub    $0x2048,%rsp
  401629:	be dd 16 40 00       	mov    $0x4016dd,%esi
  40162e:	bf 02 00 00 00       	mov    $0x2,%edi
  401633:	e8 80 f5 ff ff       	callq  400bb8 <signal@plt>
  401638:	48 8d bc 24 00 20 00 	lea    0x2000(%rsp),%rdi
  40163f:	00 
  401640:	be 40 00 00 00       	mov    $0x40,%esi
  401645:	e8 4e f5 ff ff       	callq  400b98 <gethostname@plt>
  40164a:	85 c0                	test   %eax,%eax
  40164c:	75 1b                	jne    401669 <initialize_bomb+0x49>
  40164e:	48 8b 3d 2b 1e 20 00 	mov    0x201e2b(%rip),%rdi        # 603480 <host_table>
  401655:	bb 88 34 60 00       	mov    $0x603488,%ebx
  40165a:	48 8d ac 24 00 20 00 	lea    0x2000(%rsp),%rbp
  401661:	00 
  401662:	48 85 ff             	test   %rdi,%rdi
  401665:	75 16                	jne    40167d <initialize_bomb+0x5d>
  401667:	eb 56                	jmp    4016bf <initialize_bomb+0x9f>
  401669:	bf 50 26 40 00       	mov    $0x402650,%edi
  40166e:	e8 45 f4 ff ff       	callq  400ab8 <puts@plt>
  401673:	bf 08 00 00 00       	mov    $0x8,%edi
  401678:	e8 5b f4 ff ff       	callq  400ad8 <exit@plt>
  40167d:	48 89 ee             	mov    %rbp,%rsi
  401680:	e8 63 f4 ff ff       	callq  400ae8 <strcasecmp@plt>
  401685:	85 c0                	test   %eax,%eax
  401687:	74 0e                	je     401697 <initialize_bomb+0x77>
  401689:	48 8b 3b             	mov    (%rbx),%rdi
  40168c:	48 83 c3 08          	add    $0x8,%rbx
  401690:	48 85 ff             	test   %rdi,%rdi
  401693:	75 e8                	jne    40167d <initialize_bomb+0x5d>
  401695:	eb 28                	jmp    4016bf <initialize_bomb+0x9f>
  401697:	48 89 e7             	mov    %rsp,%rdi
  40169a:	e8 91 00 00 00       	callq  401730 <init_driver>
  40169f:	85 c0                	test   %eax,%eax
  4016a1:	79 30                	jns    4016d3 <initialize_bomb+0xb3>
  4016a3:	48 89 e6             	mov    %rsp,%rsi
  4016a6:	bf e4 24 40 00       	mov    $0x4024e4,%edi
  4016ab:	b8 00 00 00 00       	mov    $0x0,%eax
  4016b0:	e8 d3 f3 ff ff       	callq  400a88 <printf@plt>
  4016b5:	bf 08 00 00 00       	mov    $0x8,%edi
  4016ba:	e8 19 f4 ff ff       	callq  400ad8 <exit@plt>
  4016bf:	bf 88 26 40 00       	mov    $0x402688,%edi
  4016c4:	e8 ef f3 ff ff       	callq  400ab8 <puts@plt>
  4016c9:	bf 08 00 00 00       	mov    $0x8,%edi
  4016ce:	e8 05 f4 ff ff       	callq  400ad8 <exit@plt>
  4016d3:	48 81 c4 48 20 00 00 	add    $0x2048,%rsp
  4016da:	5b                   	pop    %rbx
  4016db:	5d                   	pop    %rbp
  4016dc:	c3                   	retq   

00000000004016dd <sig_handler>:
  4016dd:	48 83 ec 08          	sub    $0x8,%rsp
  4016e1:	bf c0 26 40 00       	mov    $0x4026c0,%edi
  4016e6:	e8 cd f3 ff ff       	callq  400ab8 <puts@plt>
  4016eb:	bf 03 00 00 00       	mov    $0x3,%edi
  4016f0:	e8 73 f4 ff ff       	callq  400b68 <sleep@plt>
  4016f5:	bf fe 24 40 00       	mov    $0x4024fe,%edi
  4016fa:	b8 00 00 00 00       	mov    $0x0,%eax
  4016ff:	e8 84 f3 ff ff       	callq  400a88 <printf@plt>
  401704:	48 8b 3d 85 21 20 00 	mov    0x202185(%rip),%rdi        # 603890 <stdout@@GLIBC_2.2.5>
  40170b:	e8 28 f5 ff ff       	callq  400c38 <fflush@plt>
  401710:	bf 01 00 00 00       	mov    $0x1,%edi
  401715:	e8 4e f4 ff ff       	callq  400b68 <sleep@plt>
  40171a:	bf 06 25 40 00       	mov    $0x402506,%edi
  40171f:	e8 94 f3 ff ff       	callq  400ab8 <puts@plt>
  401724:	bf 10 00 00 00       	mov    $0x10,%edi
  401729:	e8 aa f3 ff ff       	callq  400ad8 <exit@plt>
  40172e:	90                   	nop
  40172f:	90                   	nop

0000000000401730 <init_driver>:
  401730:	41 54                	push   %r12
  401732:	55                   	push   %rbp
  401733:	53                   	push   %rbx
  401734:	48 83 ec 10          	sub    $0x10,%rsp
  401738:	49 89 fc             	mov    %rdi,%r12
  40173b:	be 01 00 00 00       	mov    $0x1,%esi
  401740:	bf 0d 00 00 00       	mov    $0xd,%edi
  401745:	e8 6e f4 ff ff       	callq  400bb8 <signal@plt>
  40174a:	be 01 00 00 00       	mov    $0x1,%esi
  40174f:	bf 1d 00 00 00       	mov    $0x1d,%edi
  401754:	e8 5f f4 ff ff       	callq  400bb8 <signal@plt>
  401759:	be 01 00 00 00       	mov    $0x1,%esi
  40175e:	bf 1d 00 00 00       	mov    $0x1d,%edi
  401763:	e8 50 f4 ff ff       	callq  400bb8 <signal@plt>
  401768:	ba 00 00 00 00       	mov    $0x0,%edx
  40176d:	be 01 00 00 00       	mov    $0x1,%esi
  401772:	bf 02 00 00 00       	mov    $0x2,%edi
  401777:	e8 4c f4 ff ff       	callq  400bc8 <socket@plt>
  40177c:	89 c5                	mov    %eax,%ebp
  40177e:	85 c0                	test   %eax,%eax
  401780:	79 62                	jns    4017e4 <init_driver+0xb4>
  401782:	41 c7 04 24 45 72 72 	movl   $0x6f727245,(%r12)
  401789:	6f 
  40178a:	41 c7 44 24 04 72 3a 	movl   $0x43203a72,0x4(%r12)
  401791:	20 43 
  401793:	41 c7 44 24 08 6c 69 	movl   $0x6e65696c,0x8(%r12)
  40179a:	65 6e 
  40179c:	41 c7 44 24 0c 74 20 	movl   $0x6e752074,0xc(%r12)
  4017a3:	75 6e 
  4017a5:	41 c7 44 24 10 61 62 	movl   $0x656c6261,0x10(%r12)
  4017ac:	6c 65 
  4017ae:	41 c7 44 24 14 20 74 	movl   $0x206f7420,0x14(%r12)
  4017b5:	6f 20 
  4017b7:	41 c7 44 24 18 63 72 	movl   $0x61657263,0x18(%r12)
  4017be:	65 61 
  4017c0:	41 c7 44 24 1c 74 65 	movl   $0x73206574,0x1c(%r12)
  4017c7:	20 73 
  4017c9:	41 c7 44 24 20 6f 63 	movl   $0x656b636f,0x20(%r12)
  4017d0:	6b 65 
  4017d2:	66 41 c7 44 24 24 74 	movw   $0x74,0x24(%r12)
  4017d9:	00 
  4017da:	b8 ff ff ff ff       	mov    $0xffffffff,%eax
  4017df:	e9 18 01 00 00       	jmpq   4018fc <init_driver+0x1cc>
  4017e4:	bf 0e 25 40 00       	mov    $0x40250e,%edi
  4017e9:	e8 ba f2 ff ff       	callq  400aa8 <gethostbyname@plt>
  4017ee:	48 85 c0             	test   %rax,%rax
  4017f1:	0f 85 81 00 00 00    	jne    401878 <init_driver+0x148>
  4017f7:	41 c7 04 24 45 72 72 	movl   $0x6f727245,(%r12)
  4017fe:	6f 
  4017ff:	41 c7 44 24 04 72 3a 	movl   $0x44203a72,0x4(%r12)
  401806:	20 44 
  401808:	41 c7 44 24 08 4e 53 	movl   $0x6920534e,0x8(%r12)
  40180f:	20 69 
  401811:	41 c7 44 24 0c 73 20 	movl   $0x6e752073,0xc(%r12)
  401818:	75 6e 
  40181a:	41 c7 44 24 10 61 62 	movl   $0x656c6261,0x10(%r12)
  401821:	6c 65 
  401823:	41 c7 44 24 14 20 74 	movl   $0x206f7420,0x14(%r12)
  40182a:	6f 20 
  40182c:	41 c7 44 24 18 72 65 	movl   $0x6f736572,0x18(%r12)
  401833:	73 6f 
  401835:	41 c7 44 24 1c 6c 76 	movl   $0x2065766c,0x1c(%r12)
  40183c:	65 20 
  40183e:	41 c7 44 24 20 73 65 	movl   $0x76726573,0x20(%r12)
  401845:	72 76 
  401847:	41 c7 44 24 24 65 72 	movl   $0x61207265,0x24(%r12)
  40184e:	20 61 
  401850:	41 c7 44 24 28 64 64 	movl   $0x65726464,0x28(%r12)
  401857:	72 65 
  401859:	66 41 c7 44 24 2c 73 	movw   $0x7373,0x2c(%r12)
  401860:	73 
  401861:	41 c6 44 24 2e 00    	movb   $0x0,0x2e(%r12)
  401867:	89 ef                	mov    %ebp,%edi
  401869:	e8 2a f2 ff ff       	callq  400a98 <close@plt>
  40186e:	b8 ff ff ff ff       	mov    $0xffffffff,%eax
  401873:	e9 84 00 00 00       	jmpq   4018fc <init_driver+0x1cc>
  401878:	48 c7 04 24 00 00 00 	movq   $0x0,(%rsp)
  40187f:	00 
  401880:	48 c7 44 24 08 00 00 	movq   $0x0,0x8(%rsp)
  401887:	00 00 
  401889:	66 c7 04 24 02 00    	movw   $0x2,(%rsp)
  40188f:	48 63 50 14          	movslq 0x14(%rax),%rdx
  401893:	48 8d 74 24 04       	lea    0x4(%rsp),%rsi
  401898:	48 8b 40 18          	mov    0x18(%rax),%rax
  40189c:	48 8b 38             	mov    (%rax),%rdi
  40189f:	e8 94 f2 ff ff       	callq  400b38 <bcopy@plt>
  4018a4:	66 c7 44 24 02 36 b3 	movw   $0xb336,0x2(%rsp)
  4018ab:	ba 10 00 00 00       	mov    $0x10,%edx
  4018b0:	48 89 e6             	mov    %rsp,%rsi
  4018b3:	89 ef                	mov    %ebp,%edi
  4018b5:	e8 ce f2 ff ff       	callq  400b88 <connect@plt>
  4018ba:	85 c0                	test   %eax,%eax
  4018bc:	79 25                	jns    4018e3 <init_driver+0x1b3>
  4018be:	ba 0e 25 40 00       	mov    $0x40250e,%edx
  4018c3:	be 38 27 40 00       	mov    $0x402738,%esi
  4018c8:	4c 89 e7             	mov    %r12,%rdi
  4018cb:	b8 00 00 00 00       	mov    $0x0,%eax
  4018d0:	e8 83 f2 ff ff       	callq  400b58 <sprintf@plt>
  4018d5:	89 ef                	mov    %ebp,%edi
  4018d7:	e8 bc f1 ff ff       	callq  400a98 <close@plt>
  4018dc:	b8 ff ff ff ff       	mov    $0xffffffff,%eax
  4018e1:	eb 19                	jmp    4018fc <init_driver+0x1cc>
  4018e3:	89 ef                	mov    %ebp,%edi
  4018e5:	e8 ae f1 ff ff       	callq  400a98 <close@plt>
  4018ea:	66 41 c7 04 24 4f 4b 	movw   $0x4b4f,(%r12)
  4018f1:	41 c6 44 24 02 00    	movb   $0x0,0x2(%r12)
  4018f7:	b8 00 00 00 00       	mov    $0x0,%eax
  4018fc:	48 83 c4 10          	add    $0x10,%rsp
  401900:	5b                   	pop    %rbx
  401901:	5d                   	pop    %rbp
  401902:	41 5c                	pop    %r12
  401904:	c3                   	retq   

0000000000401905 <init_timeout>:
  401905:	53                   	push   %rbx
  401906:	89 fb                	mov    %edi,%ebx
  401908:	85 ff                	test   %edi,%edi
  40190a:	74 1e                	je     40192a <init_timeout+0x25>
  40190c:	be 03 21 40 00       	mov    $0x402103,%esi
  401911:	bf 0e 00 00 00       	mov    $0xe,%edi
  401916:	e8 9d f2 ff ff       	callq  400bb8 <signal@plt>
  40191b:	85 db                	test   %ebx,%ebx
  40191d:	bf 00 00 00 00       	mov    $0x0,%edi
  401922:	0f 49 fb             	cmovns %ebx,%edi
  401925:	e8 be f2 ff ff       	callq  400be8 <alarm@plt>
  40192a:	5b                   	pop    %rbx
  40192b:	c3                   	retq   

000000000040192c <rio_readlineb>:
  40192c:	41 57                	push   %r15
  40192e:	41 56                	push   %r14
  401930:	41 55                	push   %r13
  401932:	41 54                	push   %r12
  401934:	55                   	push   %rbp
  401935:	53                   	push   %rbx
  401936:	48 83 ec 28          	sub    $0x28,%rsp
  40193a:	48 89 fb             	mov    %rdi,%rbx
  40193d:	48 89 14 24          	mov    %rdx,(%rsp)
  401941:	49 89 f7             	mov    %rsi,%r15
  401944:	48 83 fa 01          	cmp    $0x1,%rdx
  401948:	0f 86 c0 00 00 00    	jbe    401a0e <rio_readlineb+0xe2>
  40194e:	4c 8d 6f 10          	lea    0x10(%rdi),%r13
  401952:	4d 89 ec             	mov    %r13,%r12
  401955:	41 be 01 00 00 00    	mov    $0x1,%r14d
  40195b:	eb 38                	jmp    401995 <rio_readlineb+0x69>
  40195d:	ba 00 20 00 00       	mov    $0x2000,%edx
  401962:	4c 89 ee             	mov    %r13,%rsi
  401965:	8b 3b                	mov    (%rbx),%edi
  401967:	e8 8c f1 ff ff       	callq  400af8 <read@plt>
  40196c:	89 43 04             	mov    %eax,0x4(%rbx)
  40196f:	85 c0                	test   %eax,%eax
  401971:	79 16                	jns    401989 <rio_readlineb+0x5d>
  401973:	e8 80 f2 ff ff       	callq  400bf8 <__errno_location@plt>
  401978:	83 38 04             	cmpl   $0x4,(%rax)
  40197b:	74 18                	je     401995 <rio_readlineb+0x69>
  40197d:	48 c7 c2 ff ff ff ff 	mov    $0xffffffffffffffff,%rdx
  401984:	e9 a6 00 00 00       	jmpq   401a2f <rio_readlineb+0x103>
  401989:	85 c0                	test   %eax,%eax
  40198b:	0f 84 99 00 00 00    	je     401a2a <rio_readlineb+0xfe>
  401991:	4c 89 63 08          	mov    %r12,0x8(%rbx)
  401995:	8b 6b 04             	mov    0x4(%rbx),%ebp
  401998:	85 ed                	test   %ebp,%ebp
  40199a:	7e c1                	jle    40195d <rio_readlineb+0x31>
  40199c:	85 ed                	test   %ebp,%ebp
  40199e:	0f 85 90 00 00 00    	jne    401a34 <rio_readlineb+0x108>
  4019a4:	48 63 c5             	movslq %ebp,%rax
  4019a7:	48 89 44 24 08       	mov    %rax,0x8(%rsp)
  4019ac:	48 8b 73 08          	mov    0x8(%rbx),%rsi
  4019b0:	48 89 c2             	mov    %rax,%rdx
  4019b3:	48 8d 7c 24 1f       	lea    0x1f(%rsp),%rdi
  4019b8:	e8 eb f1 ff ff       	callq  400ba8 <memcpy@plt>
  4019bd:	48 8b 44 24 08       	mov    0x8(%rsp),%rax
  4019c2:	48 01 43 08          	add    %rax,0x8(%rbx)
  4019c6:	29 6b 04             	sub    %ebp,0x4(%rbx)
  4019c9:	89 c2                	mov    %eax,%edx
  4019cb:	83 f8 01             	cmp    $0x1,%eax
  4019ce:	75 15                	jne    4019e5 <rio_readlineb+0xb9>
  4019d0:	0f b6 44 24 1f       	movzbl 0x1f(%rsp),%eax
  4019d5:	41 88 07             	mov    %al,(%r15)
  4019d8:	49 83 c7 01          	add    $0x1,%r15
  4019dc:	80 7c 24 1f 0a       	cmpb   $0xa,0x1f(%rsp)
  4019e1:	75 1c                	jne    4019ff <rio_readlineb+0xd3>
  4019e3:	eb 2f                	jmp    401a14 <rio_readlineb+0xe8>
  4019e5:	44 89 f1             	mov    %r14d,%ecx
  4019e8:	48 c7 c0 ff ff ff ff 	mov    $0xffffffffffffffff,%rax
  4019ef:	85 d2                	test   %edx,%edx
  4019f1:	75 28                	jne    401a1b <rio_readlineb+0xef>
  4019f3:	b8 00 00 00 00       	mov    $0x0,%eax
  4019f8:	83 f9 01             	cmp    $0x1,%ecx
  4019fb:	75 17                	jne    401a14 <rio_readlineb+0xe8>
  4019fd:	eb 1c                	jmp    401a1b <rio_readlineb+0xef>
  4019ff:	41 83 c6 01          	add    $0x1,%r14d
  401a03:	49 63 c6             	movslq %r14d,%rax
  401a06:	48 3b 04 24          	cmp    (%rsp),%rax
  401a0a:	72 89                	jb     401995 <rio_readlineb+0x69>
  401a0c:	eb 06                	jmp    401a14 <rio_readlineb+0xe8>
  401a0e:	41 be 01 00 00 00    	mov    $0x1,%r14d
  401a14:	41 c6 07 00          	movb   $0x0,(%r15)
  401a18:	49 63 c6             	movslq %r14d,%rax
  401a1b:	48 83 c4 28          	add    $0x28,%rsp
  401a1f:	5b                   	pop    %rbx
  401a20:	5d                   	pop    %rbp
  401a21:	41 5c                	pop    %r12
  401a23:	41 5d                	pop    %r13
  401a25:	41 5e                	pop    %r14
  401a27:	41 5f                	pop    %r15
  401a29:	c3                   	retq   
  401a2a:	ba 00 00 00 00       	mov    $0x0,%edx
  401a2f:	44 89 f1             	mov    %r14d,%ecx
  401a32:	eb b4                	jmp    4019e8 <rio_readlineb+0xbc>
  401a34:	48 8b 43 08          	mov    0x8(%rbx),%rax
  401a38:	0f b6 00             	movzbl (%rax),%eax
  401a3b:	88 44 24 1f          	mov    %al,0x1f(%rsp)
  401a3f:	48 83 43 08 01       	addq   $0x1,0x8(%rbx)
  401a44:	83 6b 04 01          	subl   $0x1,0x4(%rbx)
  401a48:	eb 86                	jmp    4019d0 <rio_readlineb+0xa4>

0000000000401a4a <submitr>:
  401a4a:	41 57                	push   %r15
  401a4c:	41 56                	push   %r14
  401a4e:	41 55                	push   %r13
  401a50:	41 54                	push   %r12
  401a52:	55                   	push   %rbp
  401a53:	53                   	push   %rbx
  401a54:	48 81 ec 78 a0 00 00 	sub    $0xa078,%rsp
  401a5b:	48 89 fb             	mov    %rdi,%rbx
  401a5e:	89 f5                	mov    %esi,%ebp
  401a60:	48 89 54 24 18       	mov    %rdx,0x18(%rsp)
  401a65:	48 89 4c 24 20       	mov    %rcx,0x20(%rsp)
  401a6a:	4c 89 44 24 28       	mov    %r8,0x28(%rsp)
  401a6f:	4d 89 cf             	mov    %r9,%r15
  401a72:	4c 8b a4 24 b0 a0 00 	mov    0xa0b0(%rsp),%r12
  401a79:	00 
  401a7a:	4c 8b b4 24 b8 a0 00 	mov    0xa0b8(%rsp),%r14
  401a81:	00 
  401a82:	c7 84 24 4c 20 00 00 	movl   $0x0,0x204c(%rsp)
  401a89:	00 00 00 00 
  401a8d:	ba 00 00 00 00       	mov    $0x0,%edx
  401a92:	be 01 00 00 00       	mov    $0x1,%esi
  401a97:	bf 02 00 00 00       	mov    $0x2,%edi
  401a9c:	e8 27 f1 ff ff       	callq  400bc8 <socket@plt>
  401aa1:	41 89 c5             	mov    %eax,%r13d
  401aa4:	85 c0                	test   %eax,%eax
  401aa6:	79 19                	jns    401ac1 <submitr+0x77>
  401aa8:	be 60 27 40 00       	mov    $0x402760,%esi
  401aad:	b9 26 00 00 00       	mov    $0x26,%ecx
  401ab2:	4c 89 f7             	mov    %r14,%rdi
  401ab5:	f3 a4                	rep movsb %ds:(%rsi),%es:(%rdi)
  401ab7:	b8 ff ff ff ff       	mov    $0xffffffff,%eax
  401abc:	e9 4a 05 00 00       	jmpq   40200b <submitr+0x5c1>
  401ac1:	48 89 df             	mov    %rbx,%rdi
  401ac4:	e8 df ef ff ff       	callq  400aa8 <gethostbyname@plt>
  401ac9:	48 85 c0             	test   %rax,%rax
  401acc:	75 21                	jne    401aef <submitr+0xa5>
  401ace:	be 88 27 40 00       	mov    $0x402788,%esi
  401ad3:	b9 2f 00 00 00       	mov    $0x2f,%ecx
  401ad8:	4c 89 f7             	mov    %r14,%rdi
  401adb:	f3 a4                	rep movsb %ds:(%rsi),%es:(%rdi)
  401add:	44 89 ef             	mov    %r13d,%edi
  401ae0:	e8 b3 ef ff ff       	callq  400a98 <close@plt>
  401ae5:	b8 ff ff ff ff       	mov    $0xffffffff,%eax
  401aea:	e9 1c 05 00 00       	jmpq   40200b <submitr+0x5c1>
  401aef:	48 8d 9c 24 60 a0 00 	lea    0xa060(%rsp),%rbx
  401af6:	00 
  401af7:	48 c7 03 00 00 00 00 	movq   $0x0,(%rbx)
  401afe:	48 c7 43 08 00 00 00 	movq   $0x0,0x8(%rbx)
  401b05:	00 
  401b06:	66 c7 84 24 60 a0 00 	movw   $0x2,0xa060(%rsp)
  401b0d:	00 02 00 
  401b10:	48 63 50 14          	movslq 0x14(%rax),%rdx
  401b14:	48 8d 73 04          	lea    0x4(%rbx),%rsi
  401b18:	48 8b 40 18          	mov    0x18(%rax),%rax
  401b1c:	48 8b 38             	mov    (%rax),%rdi
  401b1f:	e8 14 f0 ff ff       	callq  400b38 <bcopy@plt>
  401b24:	66 c1 cd 08          	ror    $0x8,%bp
  401b28:	66 89 ac 24 62 a0 00 	mov    %bp,0xa062(%rsp)
  401b2f:	00 
  401b30:	ba 10 00 00 00       	mov    $0x10,%edx
  401b35:	48 89 de             	mov    %rbx,%rsi
  401b38:	44 89 ef             	mov    %r13d,%edi
  401b3b:	e8 48 f0 ff ff       	callq  400b88 <connect@plt>
  401b40:	85 c0                	test   %eax,%eax
  401b42:	79 21                	jns    401b65 <submitr+0x11b>
  401b44:	be b8 27 40 00       	mov    $0x4027b8,%esi
  401b49:	b9 27 00 00 00       	mov    $0x27,%ecx
  401b4e:	4c 89 f7             	mov    %r14,%rdi
  401b51:	f3 a4                	rep movsb %ds:(%rsi),%es:(%rdi)
  401b53:	44 89 ef             	mov    %r13d,%edi
  401b56:	e8 3d ef ff ff       	callq  400a98 <close@plt>
  401b5b:	b8 ff ff ff ff       	mov    $0xffffffff,%eax
  401b60:	e9 a6 04 00 00       	jmpq   40200b <submitr+0x5c1>
  401b65:	48 c7 c2 ff ff ff ff 	mov    $0xffffffffffffffff,%rdx
  401b6c:	4c 89 e7             	mov    %r12,%rdi
  401b6f:	b8 00 00 00 00       	mov    $0x0,%eax
  401b74:	48 89 d1             	mov    %rdx,%rcx
  401b77:	f2 ae                	repnz scas %es:(%rdi),%al
  401b79:	48 89 cb             	mov    %rcx,%rbx
  401b7c:	48 f7 d3             	not    %rbx
  401b7f:	48 8b 7c 24 18       	mov    0x18(%rsp),%rdi
  401b84:	48 89 d1             	mov    %rdx,%rcx
  401b87:	f2 ae                	repnz scas %es:(%rdi),%al
  401b89:	48 89 ce             	mov    %rcx,%rsi
  401b8c:	48 8b 7c 24 20       	mov    0x20(%rsp),%rdi
  401b91:	48 89 d1             	mov    %rdx,%rcx
  401b94:	f2 ae                	repnz scas %es:(%rdi),%al
  401b96:	48 89 cd             	mov    %rcx,%rbp
  401b99:	48 f7 d5             	not    %rbp
  401b9c:	4c 89 ff             	mov    %r15,%rdi
  401b9f:	48 89 d1             	mov    %rdx,%rcx
  401ba2:	f2 ae                	repnz scas %es:(%rdi),%al
  401ba4:	48 29 f5             	sub    %rsi,%rbp
  401ba7:	48 29 cd             	sub    %rcx,%rbp
  401baa:	48 8d 5c 5b fd       	lea    -0x3(%rbx,%rbx,2),%rbx
  401baf:	48 8d 44 1d 7b       	lea    0x7b(%rbp,%rbx,1),%rax
  401bb4:	48 3d 00 20 00 00    	cmp    $0x2000,%rax
  401bba:	0f 86 81 00 00 00    	jbe    401c41 <submitr+0x1f7>
  401bc0:	41 c7 06 45 72 72 6f 	movl   $0x6f727245,(%r14)
  401bc7:	41 c7 46 04 72 3a 20 	movl   $0x52203a72,0x4(%r14)
  401bce:	52 
  401bcf:	41 c7 46 08 65 73 75 	movl   $0x6c757365,0x8(%r14)
  401bd6:	6c 
  401bd7:	41 c7 46 0c 74 20 73 	movl   $0x74732074,0xc(%r14)
  401bde:	74 
  401bdf:	41 c7 46 10 72 69 6e 	movl   $0x676e6972,0x10(%r14)
  401be6:	67 
  401be7:	41 c7 46 14 20 74 6f 	movl   $0x6f6f7420,0x14(%r14)
  401bee:	6f 
  401bef:	41 c7 46 18 20 6c 61 	movl   $0x72616c20,0x18(%r14)
  401bf6:	72 
  401bf7:	41 c7 46 1c 67 65 2e 	movl   $0x202e6567,0x1c(%r14)
  401bfe:	20 
  401bff:	41 c7 46 20 49 6e 63 	movl   $0x72636e49,0x20(%r14)
  401c06:	72 
  401c07:	41 c7 46 24 65 61 73 	movl   $0x65736165,0x24(%r14)
  401c0e:	65 
  401c0f:	41 c7 46 28 20 53 55 	movl   $0x42555320,0x28(%r14)
  401c16:	42 
  401c17:	41 c7 46 2c 4d 49 54 	movl   $0x5254494d,0x2c(%r14)
  401c1e:	52 
  401c1f:	41 c7 46 30 5f 4d 41 	movl   $0x58414d5f,0x30(%r14)
  401c26:	58 
  401c27:	41 c7 46 34 42 55 46 	movl   $0x465542,0x34(%r14)
  401c2e:	00 
  401c2f:	44 89 ef             	mov    %r13d,%edi
  401c32:	e8 61 ee ff ff       	callq  400a98 <close@plt>
  401c37:	b8 ff ff ff ff       	mov    $0xffffffff,%eax
  401c3c:	e9 ca 03 00 00       	jmpq   40200b <submitr+0x5c1>
  401c41:	48 8d 94 24 50 40 00 	lea    0x4050(%rsp),%rdx
  401c48:	00 
  401c49:	b9 00 04 00 00       	mov    $0x400,%ecx
  401c4e:	b8 00 00 00 00       	mov    $0x0,%eax
  401c53:	48 89 d7             	mov    %rdx,%rdi
  401c56:	f3 48 ab             	rep stos %rax,%es:(%rdi)
  401c59:	4c 89 e7             	mov    %r12,%rdi
  401c5c:	48 c7 c1 ff ff ff ff 	mov    $0xffffffffffffffff,%rcx
  401c63:	f2 ae                	repnz scas %es:(%rdi),%al
  401c65:	48 f7 d1             	not    %rcx
  401c68:	83 e9 01             	sub    $0x1,%ecx
  401c6b:	0f 84 ac 03 00 00    	je     40201d <submitr+0x5d3>
  401c71:	48 89 d3             	mov    %rdx,%rbx
  401c74:	4c 89 e5             	mov    %r12,%rbp
  401c77:	44 8d 61 ff          	lea    -0x1(%rcx),%r12d
  401c7b:	0f b6 45 00          	movzbl 0x0(%rbp),%eax
  401c7f:	3c 2a                	cmp    $0x2a,%al
  401c81:	74 27                	je     401caa <submitr+0x260>
  401c83:	3c 2d                	cmp    $0x2d,%al
  401c85:	74 23                	je     401caa <submitr+0x260>
  401c87:	3c 2e                	cmp    $0x2e,%al
  401c89:	74 1f                	je     401caa <submitr+0x260>
  401c8b:	3c 5f                	cmp    $0x5f,%al
  401c8d:	0f 1f 00             	nopl   (%rax)
  401c90:	74 18                	je     401caa <submitr+0x260>
  401c92:	8d 50 d0             	lea    -0x30(%rax),%edx
  401c95:	80 fa 09             	cmp    $0x9,%dl
  401c98:	76 10                	jbe    401caa <submitr+0x260>
  401c9a:	8d 50 bf             	lea    -0x41(%rax),%edx
  401c9d:	80 fa 19             	cmp    $0x19,%dl
  401ca0:	76 08                	jbe    401caa <submitr+0x260>
  401ca2:	8d 50 9f             	lea    -0x61(%rax),%edx
  401ca5:	80 fa 19             	cmp    $0x19,%dl
  401ca8:	77 08                	ja     401cb2 <submitr+0x268>
  401caa:	88 03                	mov    %al,(%rbx)
  401cac:	48 83 c3 01          	add    $0x1,%rbx
  401cb0:	eb 4b                	jmp    401cfd <submitr+0x2b3>
  401cb2:	3c 20                	cmp    $0x20,%al
  401cb4:	75 09                	jne    401cbf <submitr+0x275>
  401cb6:	c6 03 2b             	movb   $0x2b,(%rbx)
  401cb9:	48 83 c3 01          	add    $0x1,%rbx
  401cbd:	eb 3e                	jmp    401cfd <submitr+0x2b3>
  401cbf:	8d 50 e0             	lea    -0x20(%rax),%edx
  401cc2:	80 fa 5f             	cmp    $0x5f,%dl
  401cc5:	76 04                	jbe    401ccb <submitr+0x281>
  401cc7:	3c 09                	cmp    $0x9,%al
  401cc9:	75 48                	jne    401d13 <submitr+0x2c9>
  401ccb:	0f b6 d0             	movzbl %al,%edx
  401cce:	be f8 26 40 00       	mov    $0x4026f8,%esi
  401cd3:	48 8d 7c 24 30       	lea    0x30(%rsp),%rdi
  401cd8:	b8 00 00 00 00       	mov    $0x0,%eax
  401cdd:	e8 76 ee ff ff       	callq  400b58 <sprintf@plt>
  401ce2:	0f b6 44 24 30       	movzbl 0x30(%rsp),%eax
  401ce7:	88 03                	mov    %al,(%rbx)
  401ce9:	0f b6 44 24 31       	movzbl 0x31(%rsp),%eax
  401cee:	88 43 01             	mov    %al,0x1(%rbx)
  401cf1:	0f b6 44 24 32       	movzbl 0x32(%rsp),%eax
  401cf6:	88 43 02             	mov    %al,0x2(%rbx)
  401cf9:	48 83 c3 03          	add    $0x3,%rbx
  401cfd:	45 85 e4             	test   %r12d,%r12d
  401d00:	0f 84 17 03 00 00    	je     40201d <submitr+0x5d3>
  401d06:	48 83 c5 01          	add    $0x1,%rbp
  401d0a:	41 83 ec 01          	sub    $0x1,%r12d
  401d0e:	e9 68 ff ff ff       	jmpq   401c7b <submitr+0x231>
  401d13:	be e0 27 40 00       	mov    $0x4027e0,%esi
  401d18:	b9 43 00 00 00       	mov    $0x43,%ecx
  401d1d:	4c 89 f7             	mov    %r14,%rdi
  401d20:	f3 a4                	rep movsb %ds:(%rsi),%es:(%rdi)
  401d22:	44 89 ef             	mov    %r13d,%edi
  401d25:	e8 6e ed ff ff       	callq  400a98 <close@plt>
  401d2a:	b8 ff ff ff ff       	mov    $0xffffffff,%eax
  401d2f:	e9 d7 02 00 00       	jmpq   40200b <submitr+0x5c1>
  401d34:	48 01 c5             	add    %rax,%rbp
  401d37:	48 89 da             	mov    %rbx,%rdx
  401d3a:	48 89 ee             	mov    %rbp,%rsi
  401d3d:	44 89 ef             	mov    %r13d,%edi
  401d40:	e8 e3 ee ff ff       	callq  400c28 <write@plt>
  401d45:	48 85 c0             	test   %rax,%rax
  401d48:	7f 0d                	jg     401d57 <submitr+0x30d>
  401d4a:	e8 a9 ee ff ff       	callq  400bf8 <__errno_location@plt>
  401d4f:	83 38 04             	cmpl   $0x4,(%rax)
  401d52:	75 0d                	jne    401d61 <submitr+0x317>
  401d54:	4c 89 f8             	mov    %r15,%rax
  401d57:	48 29 c3             	sub    %rax,%rbx
  401d5a:	75 d8                	jne    401d34 <submitr+0x2ea>
  401d5c:	4d 85 e4             	test   %r12,%r12
  401d5f:	79 5d                	jns    401dbe <submitr+0x374>
  401d61:	4c 89 f7             	mov    %r14,%rdi
  401d64:	be 28 28 40 00       	mov    $0x402828,%esi
  401d69:	b8 2c 00 00 00       	mov    $0x2c,%eax
  401d6e:	41 f6 c6 01          	test   $0x1,%r14b
  401d72:	74 04                	je     401d78 <submitr+0x32e>
  401d74:	a4                   	movsb  %ds:(%rsi),%es:(%rdi)
  401d75:	83 e8 01             	sub    $0x1,%eax
  401d78:	40 f6 c7 02          	test   $0x2,%dil
  401d7c:	74 05                	je     401d83 <submitr+0x339>
  401d7e:	66 a5                	movsw  %ds:(%rsi),%es:(%rdi)
  401d80:	83 e8 02             	sub    $0x2,%eax
  401d83:	89 c1                	mov    %eax,%ecx
  401d85:	c1 e9 02             	shr    $0x2,%ecx
  401d88:	89 c9                	mov    %ecx,%ecx
  401d8a:	f3 a5                	rep movsl %ds:(%rsi),%es:(%rdi)
  401d8c:	ba 00 00 00 00       	mov    $0x0,%edx
  401d91:	a8 02                	test   $0x2,%al
  401d93:	74 0c                	je     401da1 <submitr+0x357>
  401d95:	0f b7 0c 16          	movzwl (%rsi,%rdx,1),%ecx
  401d99:	66 89 0c 17          	mov    %cx,(%rdi,%rdx,1)
  401d9d:	48 83 c2 02          	add    $0x2,%rdx
  401da1:	a8 01                	test   $0x1,%al
  401da3:	74 07                	je     401dac <submitr+0x362>
  401da5:	0f b6 04 16          	movzbl (%rsi,%rdx,1),%eax
  401da9:	88 04 17             	mov    %al,(%rdi,%rdx,1)
  401dac:	44 89 ef             	mov    %r13d,%edi
  401daf:	e8 e4 ec ff ff       	callq  400a98 <close@plt>
  401db4:	b8 ff ff ff ff       	mov    $0xffffffff,%eax
  401db9:	e9 4d 02 00 00       	jmpq   40200b <submitr+0x5c1>
  401dbe:	44 89 ac 24 50 80 00 	mov    %r13d,0x8050(%rsp)
  401dc5:	00 
  401dc6:	c7 84 24 54 80 00 00 	movl   $0x0,0x8054(%rsp)
  401dcd:	00 00 00 00 
  401dd1:	48 8d bc 24 50 80 00 	lea    0x8050(%rsp),%rdi
  401dd8:	00 
  401dd9:	48 8d 47 10          	lea    0x10(%rdi),%rax
  401ddd:	48 89 84 24 58 80 00 	mov    %rax,0x8058(%rsp)
  401de4:	00 
  401de5:	48 8d b4 24 50 60 00 	lea    0x6050(%rsp),%rsi
  401dec:	00 
  401ded:	ba 00 20 00 00       	mov    $0x2000,%edx
  401df2:	e8 35 fb ff ff       	callq  40192c <rio_readlineb>
  401df7:	48 85 c0             	test   %rax,%rax
  401dfa:	7f 21                	jg     401e1d <submitr+0x3d3>
  401dfc:	be 58 28 40 00       	mov    $0x402858,%esi
  401e01:	b9 36 00 00 00       	mov    $0x36,%ecx
  401e06:	4c 89 f7             	mov    %r14,%rdi
  401e09:	f3 a4                	rep movsb %ds:(%rsi),%es:(%rdi)
  401e0b:	44 89 ef             	mov    %r13d,%edi
  401e0e:	e8 85 ec ff ff       	callq  400a98 <close@plt>
  401e13:	b8 ff ff ff ff       	mov    $0xffffffff,%eax
  401e18:	e9 ee 01 00 00       	jmpq   40200b <submitr+0x5c1>
  401e1d:	4c 8d bc 24 50 60 00 	lea    0x6050(%rsp),%r15
  401e24:	00 
  401e25:	48 8d 8c 24 4c 20 00 	lea    0x204c(%rsp),%rcx
  401e2c:	00 
  401e2d:	48 8d 94 24 50 20 00 	lea    0x2050(%rsp),%rdx
  401e34:	00 
  401e35:	4c 8d 44 24 40       	lea    0x40(%rsp),%r8
  401e3a:	be ff 26 40 00       	mov    $0x4026ff,%esi
  401e3f:	4c 89 ff             	mov    %r15,%rdi
  401e42:	b8 00 00 00 00       	mov    $0x0,%eax
  401e47:	e8 7c ec ff ff       	callq  400ac8 <__isoc99_sscanf@plt>
  401e4c:	8b 94 24 4c 20 00 00 	mov    0x204c(%rsp),%edx
  401e53:	81 fa c8 00 00 00    	cmp    $0xc8,%edx
  401e59:	0f 84 b8 00 00 00    	je     401f17 <submitr+0x4cd>
  401e5f:	48 8d 4c 24 40       	lea    0x40(%rsp),%rcx
  401e64:	be 90 28 40 00       	mov    $0x402890,%esi
  401e69:	4c 89 f7             	mov    %r14,%rdi
  401e6c:	b8 00 00 00 00       	mov    $0x0,%eax
  401e71:	e8 e2 ec ff ff       	callq  400b58 <sprintf@plt>
  401e76:	44 89 ef             	mov    %r13d,%edi
  401e79:	e8 1a ec ff ff       	callq  400a98 <close@plt>
  401e7e:	b8 ff ff ff ff       	mov    $0xffffffff,%eax
  401e83:	e9 83 01 00 00       	jmpq   40200b <submitr+0x5c1>
  401e88:	ba 00 20 00 00       	mov    $0x2000,%edx
  401e8d:	48 89 de             	mov    %rbx,%rsi
  401e90:	4c 89 e7             	mov    %r12,%rdi
  401e93:	e8 94 fa ff ff       	callq  40192c <rio_readlineb>
  401e98:	48 85 c0             	test   %rax,%rax
  401e9b:	0f 8f 8b 00 00 00    	jg     401f2c <submitr+0x4e2>
  401ea1:	41 c7 06 45 72 72 6f 	movl   $0x6f727245,(%r14)
  401ea8:	41 c7 46 04 72 3a 20 	movl   $0x43203a72,0x4(%r14)
  401eaf:	43 
  401eb0:	41 c7 46 08 6c 69 65 	movl   $0x6e65696c,0x8(%r14)
  401eb7:	6e 
  401eb8:	41 c7 46 0c 74 20 75 	movl   $0x6e752074,0xc(%r14)
  401ebf:	6e 
  401ec0:	41 c7 46 10 61 62 6c 	movl   $0x656c6261,0x10(%r14)
  401ec7:	65 
  401ec8:	41 c7 46 14 20 74 6f 	movl   $0x206f7420,0x14(%r14)
  401ecf:	20 
  401ed0:	41 c7 46 18 72 65 61 	movl   $0x64616572,0x18(%r14)
  401ed7:	64 
  401ed8:	41 c7 46 1c 20 68 65 	movl   $0x61656820,0x1c(%r14)
  401edf:	61 
  401ee0:	41 c7 46 20 64 65 72 	movl   $0x73726564,0x20(%r14)
  401ee7:	73 
  401ee8:	41 c7 46 24 20 66 72 	movl   $0x6f726620,0x24(%r14)
  401eef:	6f 
  401ef0:	41 c7 46 28 6d 20 73 	movl   $0x6573206d,0x28(%r14)
  401ef7:	65 
  401ef8:	41 c7 46 2c 72 76 65 	movl   $0x72657672,0x2c(%r14)
  401eff:	72 
  401f00:	41 c6 46 30 00       	movb   $0x0,0x30(%r14)
  401f05:	44 89 ef             	mov    %r13d,%edi
  401f08:	e8 8b eb ff ff       	callq  400a98 <close@plt>
  401f0d:	b8 ff ff ff ff       	mov    $0xffffffff,%eax
  401f12:	e9 f4 00 00 00       	jmpq   40200b <submitr+0x5c1>
  401f17:	48 8d 9c 24 50 60 00 	lea    0x6050(%rsp),%rbx
  401f1e:	00 
  401f1f:	bd 10 27 40 00       	mov    $0x402710,%ebp
  401f24:	4c 8d a4 24 50 80 00 	lea    0x8050(%rsp),%r12
  401f2b:	00 
  401f2c:	0f b6 03             	movzbl (%rbx),%eax
  401f2f:	3a 45 00             	cmp    0x0(%rbp),%al
  401f32:	0f 85 50 ff ff ff    	jne    401e88 <submitr+0x43e>
  401f38:	0f b6 43 01          	movzbl 0x1(%rbx),%eax
  401f3c:	3a 45 01             	cmp    0x1(%rbp),%al
  401f3f:	0f 85 43 ff ff ff    	jne    401e88 <submitr+0x43e>
  401f45:	0f b6 43 02          	movzbl 0x2(%rbx),%eax
  401f49:	3a 45 02             	cmp    0x2(%rbp),%al
  401f4c:	0f 85 36 ff ff ff    	jne    401e88 <submitr+0x43e>
  401f52:	48 8d b4 24 50 60 00 	lea    0x6050(%rsp),%rsi
  401f59:	00 
  401f5a:	48 8d bc 24 50 80 00 	lea    0x8050(%rsp),%rdi
  401f61:	00 
  401f62:	ba 00 20 00 00       	mov    $0x2000,%edx
  401f67:	e8 c0 f9 ff ff       	callq  40192c <rio_readlineb>
  401f6c:	48 85 c0             	test   %rax,%rax
  401f6f:	7f 5a                	jg     401fcb <submitr+0x581>
  401f71:	4c 89 f7             	mov    %r14,%rdi
  401f74:	be c0 28 40 00       	mov    $0x4028c0,%esi
  401f79:	b8 38 00 00 00       	mov    $0x38,%eax
  401f7e:	41 f6 c6 01          	test   $0x1,%r14b
  401f82:	74 04                	je     401f88 <submitr+0x53e>
  401f84:	a4                   	movsb  %ds:(%rsi),%es:(%rdi)
  401f85:	83 e8 01             	sub    $0x1,%eax
  401f88:	40 f6 c7 02          	test   $0x2,%dil
  401f8c:	74 05                	je     401f93 <submitr+0x549>
  401f8e:	66 a5                	movsw  %ds:(%rsi),%es:(%rdi)
  401f90:	83 e8 02             	sub    $0x2,%eax
  401f93:	89 c1                	mov    %eax,%ecx
  401f95:	c1 e9 02             	shr    $0x2,%ecx
  401f98:	89 c9                	mov    %ecx,%ecx
  401f9a:	f3 a5                	rep movsl %ds:(%rsi),%es:(%rdi)
  401f9c:	ba 00 00 00 00       	mov    $0x0,%edx
  401fa1:	a8 02                	test   $0x2,%al
  401fa3:	74 0c                	je     401fb1 <submitr+0x567>
  401fa5:	0f b7 0c 16          	movzwl (%rsi,%rdx,1),%ecx
  401fa9:	66 89 0c 17          	mov    %cx,(%rdi,%rdx,1)
  401fad:	48 83 c2 02          	add    $0x2,%rdx
  401fb1:	a8 01                	test   $0x1,%al
  401fb3:	74 07                	je     401fbc <submitr+0x572>
  401fb5:	0f b6 04 16          	movzbl (%rsi,%rdx,1),%eax
  401fb9:	88 04 17             	mov    %al,(%rdi,%rdx,1)
  401fbc:	44 89 ef             	mov    %r13d,%edi
  401fbf:	e8 d4 ea ff ff       	callq  400a98 <close@plt>
  401fc4:	b8 ff ff ff ff       	mov    $0xffffffff,%eax
  401fc9:	eb 40                	jmp    40200b <submitr+0x5c1>
  401fcb:	4c 89 fe             	mov    %r15,%rsi
  401fce:	4c 89 f7             	mov    %r14,%rdi
  401fd1:	e8 32 ec ff ff       	callq  400c08 <strcpy@plt>
  401fd6:	44 89 ef             	mov    %r13d,%edi
  401fd9:	e8 ba ea ff ff       	callq  400a98 <close@plt>
  401fde:	b8 13 27 40 00       	mov    $0x402713,%eax
  401fe3:	41 0f b6 16          	movzbl (%r14),%edx
  401fe7:	3a 10                	cmp    (%rax),%dl
  401fe9:	75 1b                	jne    402006 <submitr+0x5bc>
  401feb:	41 0f b6 56 01       	movzbl 0x1(%r14),%edx
  401ff0:	3a 50 01             	cmp    0x1(%rax),%dl
  401ff3:	75 11                	jne    402006 <submitr+0x5bc>
  401ff5:	41 0f b6 56 02       	movzbl 0x2(%r14),%edx
  401ffa:	3a 50 02             	cmp    0x2(%rax),%dl
  401ffd:	75 07                	jne    402006 <submitr+0x5bc>
  401fff:	b8 00 00 00 00       	mov    $0x0,%eax
  402004:	eb 05                	jmp    40200b <submitr+0x5c1>
  402006:	b8 ff ff ff ff       	mov    $0xffffffff,%eax
  40200b:	48 81 c4 78 a0 00 00 	add    $0xa078,%rsp
  402012:	5b                   	pop    %rbx
  402013:	5d                   	pop    %rbp
  402014:	41 5c                	pop    %r12
  402016:	41 5d                	pop    %r13
  402018:	41 5e                	pop    %r14
  40201a:	41 5f                	pop    %r15
  40201c:	c3                   	retq   
  40201d:	48 8d 9c 24 50 60 00 	lea    0x6050(%rsp),%rbx
  402024:	00 
  402025:	48 8d 84 24 50 40 00 	lea    0x4050(%rsp),%rax
  40202c:	00 
  40202d:	48 89 04 24          	mov    %rax,(%rsp)
  402031:	4d 89 f9             	mov    %r15,%r9
  402034:	4c 8b 44 24 28       	mov    0x28(%rsp),%r8
  402039:	48 8b 4c 24 20       	mov    0x20(%rsp),%rcx
  40203e:	48 8b 54 24 18       	mov    0x18(%rsp),%rdx
  402043:	be f8 28 40 00       	mov    $0x4028f8,%esi
  402048:	48 89 df             	mov    %rbx,%rdi
  40204b:	b8 00 00 00 00       	mov    $0x0,%eax
  402050:	e8 03 eb ff ff       	callq  400b58 <sprintf@plt>
  402055:	48 89 df             	mov    %rbx,%rdi
  402058:	b8 00 00 00 00       	mov    $0x0,%eax
  40205d:	48 c7 c1 ff ff ff ff 	mov    $0xffffffffffffffff,%rcx
  402064:	f2 ae                	repnz scas %es:(%rdi),%al
  402066:	48 f7 d1             	not    %rcx
  402069:	49 89 cc             	mov    %rcx,%r12
  40206c:	49 83 ec 01          	sub    $0x1,%r12
  402070:	0f 84 48 fd ff ff    	je     401dbe <submitr+0x374>
  402076:	4c 89 e3             	mov    %r12,%rbx
  402079:	48 8d ac 24 50 60 00 	lea    0x6050(%rsp),%rbp
  402080:	00 
  402081:	41 bf 00 00 00 00    	mov    $0x0,%r15d
  402087:	e9 ab fc ff ff       	jmpq   401d37 <submitr+0x2ed>

000000000040208c <driver_post>:
  40208c:	53                   	push   %rbx
  40208d:	48 83 ec 10          	sub    $0x10,%rsp
  402091:	4c 89 c3             	mov    %r8,%rbx
  402094:	85 c9                	test   %ecx,%ecx
  402096:	74 22                	je     4020ba <driver_post+0x2e>
  402098:	48 89 d6             	mov    %rdx,%rsi
  40209b:	bf 16 27 40 00       	mov    $0x402716,%edi
  4020a0:	b8 00 00 00 00       	mov    $0x0,%eax
  4020a5:	e8 de e9 ff ff       	callq  400a88 <printf@plt>
  4020aa:	66 c7 03 4f 4b       	movw   $0x4b4f,(%rbx)
  4020af:	c6 43 02 00          	movb   $0x0,0x2(%rbx)
  4020b3:	b8 00 00 00 00       	mov    $0x0,%eax
  4020b8:	eb 43                	jmp    4020fd <driver_post+0x71>
  4020ba:	48 85 ff             	test   %rdi,%rdi
  4020bd:	74 30                	je     4020ef <driver_post+0x63>
  4020bf:	80 3f 00             	cmpb   $0x0,(%rdi)
  4020c2:	74 2b                	je     4020ef <driver_post+0x63>
  4020c4:	4c 89 44 24 08       	mov    %r8,0x8(%rsp)
  4020c9:	48 89 14 24          	mov    %rdx,(%rsp)
  4020cd:	41 b9 2d 27 40 00    	mov    $0x40272d,%r9d
  4020d3:	49 89 f0             	mov    %rsi,%r8
  4020d6:	48 89 f9             	mov    %rdi,%rcx
  4020d9:	ba 31 27 40 00       	mov    $0x402731,%edx
  4020de:	be b3 36 00 00       	mov    $0x36b3,%esi
  4020e3:	bf 0e 25 40 00       	mov    $0x40250e,%edi
  4020e8:	e8 5d f9 ff ff       	callq  401a4a <submitr>
  4020ed:	eb 0e                	jmp    4020fd <driver_post+0x71>
  4020ef:	66 c7 03 4f 4b       	movw   $0x4b4f,(%rbx)
  4020f4:	c6 43 02 00          	movb   $0x0,0x2(%rbx)
  4020f8:	b8 00 00 00 00       	mov    $0x0,%eax
  4020fd:	48 83 c4 10          	add    $0x10,%rsp
  402101:	5b                   	pop    %rbx
  402102:	c3                   	retq   

0000000000402103 <sigalrm_handler>:
  402103:	48 83 ec 08          	sub    $0x8,%rsp
  402107:	ba 00 00 00 00       	mov    $0x0,%edx
  40210c:	be 50 29 40 00       	mov    $0x402950,%esi
  402111:	48 8b 3d 70 17 20 00 	mov    0x201770(%rip),%rdi        # 603888 <stderr@@GLIBC_2.2.5>
  402118:	b8 00 00 00 00       	mov    $0x0,%eax
  40211d:	e8 f6 ea ff ff       	callq  400c18 <fprintf@plt>
  402122:	bf 01 00 00 00       	mov    $0x1,%edi
  402127:	e8 ac e9 ff ff       	callq  400ad8 <exit@plt>
  40212c:	90                   	nop
  40212d:	90                   	nop
  40212e:	90                   	nop
  40212f:	90                   	nop

0000000000402130 <__libc_csu_fini>:
  402130:	f3 c3                	repz retq 
  402132:	66 66 66 66 66 2e 0f 	data32 data32 data32 data32 nopw %cs:0x0(%rax,%rax,1)
  402139:	1f 84 00 00 00 00 00 

0000000000402140 <__libc_csu_init>:
  402140:	48 89 6c 24 d8       	mov    %rbp,-0x28(%rsp)
  402145:	4c 89 64 24 e0       	mov    %r12,-0x20(%rsp)
  40214a:	48 8d 2d bb 0d 20 00 	lea    0x200dbb(%rip),%rbp        # 602f0c <__init_array_end>
  402151:	4c 8d 25 b4 0d 20 00 	lea    0x200db4(%rip),%r12        # 602f0c <__init_array_end>
  402158:	4c 89 6c 24 e8       	mov    %r13,-0x18(%rsp)
  40215d:	4c 89 74 24 f0       	mov    %r14,-0x10(%rsp)
  402162:	4c 89 7c 24 f8       	mov    %r15,-0x8(%rsp)
  402167:	48 89 5c 24 d0       	mov    %rbx,-0x30(%rsp)
  40216c:	48 83 ec 38          	sub    $0x38,%rsp
  402170:	4c 29 e5             	sub    %r12,%rbp
  402173:	41 89 fd             	mov    %edi,%r13d
  402176:	49 89 f6             	mov    %rsi,%r14
  402179:	48 c1 fd 03          	sar    $0x3,%rbp
  40217d:	49 89 d7             	mov    %rdx,%r15
  402180:	e8 db e8 ff ff       	callq  400a60 <_init>
  402185:	48 85 ed             	test   %rbp,%rbp
  402188:	74 1c                	je     4021a6 <__libc_csu_init+0x66>
  40218a:	31 db                	xor    %ebx,%ebx
  40218c:	0f 1f 40 00          	nopl   0x0(%rax)
  402190:	4c 89 fa             	mov    %r15,%rdx
  402193:	4c 89 f6             	mov    %r14,%rsi
  402196:	44 89 ef             	mov    %r13d,%edi
  402199:	41 ff 14 dc          	callq  *(%r12,%rbx,8)
  40219d:	48 83 c3 01          	add    $0x1,%rbx
  4021a1:	48 39 eb             	cmp    %rbp,%rbx
  4021a4:	72 ea                	jb     402190 <__libc_csu_init+0x50>
  4021a6:	48 8b 5c 24 08       	mov    0x8(%rsp),%rbx
  4021ab:	48 8b 6c 24 10       	mov    0x10(%rsp),%rbp
  4021b0:	4c 8b 64 24 18       	mov    0x18(%rsp),%r12
  4021b5:	4c 8b 6c 24 20       	mov    0x20(%rsp),%r13
  4021ba:	4c 8b 74 24 28       	mov    0x28(%rsp),%r14
  4021bf:	4c 8b 7c 24 30       	mov    0x30(%rsp),%r15
  4021c4:	48 83 c4 38          	add    $0x38,%rsp
  4021c8:	c3                   	retq   
  4021c9:	90                   	nop
  4021ca:	90                   	nop
  4021cb:	90                   	nop
  4021cc:	90                   	nop
  4021cd:	90                   	nop
  4021ce:	90                   	nop
  4021cf:	90                   	nop

00000000004021d0 <__do_global_ctors_aux>:
  4021d0:	55                   	push   %rbp
  4021d1:	48 89 e5             	mov    %rsp,%rbp
  4021d4:	53                   	push   %rbx
  4021d5:	48 83 ec 08          	sub    $0x8,%rsp
  4021d9:	48 8b 05 30 0d 20 00 	mov    0x200d30(%rip),%rax        # 602f10 <__CTOR_LIST__>
  4021e0:	48 83 f8 ff          	cmp    $0xffffffffffffffff,%rax
  4021e4:	74 19                	je     4021ff <__do_global_ctors_aux+0x2f>
  4021e6:	bb 10 2f 60 00       	mov    $0x602f10,%ebx
  4021eb:	0f 1f 44 00 00       	nopl   0x0(%rax,%rax,1)
  4021f0:	48 83 eb 08          	sub    $0x8,%rbx
  4021f4:	ff d0                	callq  *%rax
  4021f6:	48 8b 03             	mov    (%rbx),%rax
  4021f9:	48 83 f8 ff          	cmp    $0xffffffffffffffff,%rax
  4021fd:	75 f1                	jne    4021f0 <__do_global_ctors_aux+0x20>
  4021ff:	48 83 c4 08          	add    $0x8,%rsp
  402203:	5b                   	pop    %rbx
  402204:	c9                   	leaveq 
  402205:	c3                   	retq   
  402206:	90                   	nop
  402207:	90                   	nop

Disassembly of section .fini:

0000000000402208 <_fini>:
  402208:	48 83 ec 08          	sub    $0x8,%rsp
  40220c:	e8 8f ea ff ff       	callq  400ca0 <__do_global_dtors_aux>
  402211:	48 83 c4 08          	add    $0x8,%rsp
  402215:	c3                   	retq   
